ARM GAS  C:\Users\ADMIN\AppData\Local\Temp\cc30vqtN.s 			page 1


   1              		.syntax unified
   2              		.cpu cortex-m0
   3              		.fpu softvfp
   4              		.eabi_attribute 20, 1
   5              		.eabi_attribute 21, 1
   6              		.eabi_attribute 23, 3
   7              		.eabi_attribute 24, 1
   8              		.eabi_attribute 25, 1
   9              		.eabi_attribute 26, 1
  10              		.eabi_attribute 30, 1
  11              		.eabi_attribute 34, 0
  12              		.eabi_attribute 18, 4
  13              		.thumb
  14              		.syntax unified
  15              		.file	"main.c"
  16              		.text
  17              	.Ltext0:
  18              		.cfi_sections	.debug_frame
  19              		.section	.text.SW_Handler,"ax",%progbits
  20              		.align	2
  21              		.global	SW_Handler
  22              		.code	16
  23              		.thumb_func
  24              		.type	SW_Handler, %function
  25              	SW_Handler:
  26              	.LFB33:
  27              		.file 1 "main.c"
   1:main.c        **** #include <stdio.h>
   2:main.c        **** #include <stdlib.h>
   3:main.c        **** #include <stdbool.h>
   4:main.c        **** 
   5:main.c        **** #include "project.h"
   6:main.c        **** #include "tcs34725.h"
   7:main.c        **** #include "utils.h"
   8:main.c        **** #include "learn_color.h"
   9:main.c        **** #include "gates.h"
  10:main.c        **** 
  11:main.c        **** #define BUTTON_NUM 0
  12:main.c        **** 
  13:main.c        **** extern uint8_t _tcs34725Initialised;
  14:main.c        **** extern struct RGB red_led, yellow_led, orange_led, green_led, blue_led, brown_led, black_led;
  15:main.c        **** extern bool state;
  16:main.c        **** 
  17:main.c        **** int count_settings = 0;
  18:main.c        **** uint16 joystick = 0;
  19:main.c        **** 
  20:main.c        **** CY_ISR(SW_Handler)
  21:main.c        **** {
  28              		.loc 1 21 0
  29              		.cfi_startproc
  30              		@ args = 0, pretend = 0, frame = 0
  31              		@ frame_needed = 0, uses_anonymous_args = 0
  32 0000 10B5     		push	{r4, lr}
  33              		.cfi_def_cfa_offset 8
  34              		.cfi_offset 4, -8
  35              		.cfi_offset 14, -4
  22:main.c        ****     count_settings++;
ARM GAS  C:\Users\ADMIN\AppData\Local\Temp\cc30vqtN.s 			page 2


  36              		.loc 1 22 0
  37 0002 054A     		ldr	r2, .L2
  38 0004 1368     		ldr	r3, [r2]
  39 0006 0133     		adds	r3, r3, #1
  40 0008 1360     		str	r3, [r2]
  23:main.c        ****     button_pushed = true;
  41              		.loc 1 23 0
  42 000a 0122     		movs	r2, #1
  43 000c 034B     		ldr	r3, .L2+4
  44 000e 1A70     		strb	r2, [r3]
  24:main.c        ****     
  25:main.c        ****     SW_ClearInterrupt();
  45              		.loc 1 25 0
  46 0010 FFF7FEFF 		bl	SW_ClearInterrupt
  47              	.LVL0:
  26:main.c        **** }
  48              		.loc 1 26 0
  49              		@ sp needed
  50 0014 10BD     		pop	{r4, pc}
  51              	.L3:
  52 0016 C046     		.align	2
  53              	.L2:
  54 0018 00000000 		.word	.LANCHOR0
  55 001c 00000000 		.word	button_pushed
  56              		.cfi_endproc
  57              	.LFE33:
  58              		.size	SW_Handler, .-SW_Handler
  59              		.section	.text.SW_UpDown_Handler,"ax",%progbits
  60              		.align	2
  61              		.global	SW_UpDown_Handler
  62              		.code	16
  63              		.thumb_func
  64              		.type	SW_UpDown_Handler, %function
  65              	SW_UpDown_Handler:
  66              	.LFB34:
  27:main.c        **** 
  28:main.c        **** 
  29:main.c        **** CY_ISR(SW_UpDown_Handler)
  30:main.c        **** {
  67              		.loc 1 30 0
  68              		.cfi_startproc
  69              		@ args = 0, pretend = 0, frame = 0
  70              		@ frame_needed = 0, uses_anonymous_args = 0
  71 0000 10B5     		push	{r4, lr}
  72              		.cfi_def_cfa_offset 8
  73              		.cfi_offset 4, -8
  74              		.cfi_offset 14, -4
  31:main.c        **** 
  32:main.c        ****     joystick = ADC_GetResult16(BUTTON_NUM);
  75              		.loc 1 32 0
  76 0002 0020     		movs	r0, #0
  77 0004 FFF7FEFF 		bl	ADC_GetResult16
  78              	.LVL1:
  79 0008 024B     		ldr	r3, .L5
  80 000a 9880     		strh	r0, [r3, #4]
  33:main.c        ****     
  34:main.c        ****     if (joystick){
ARM GAS  C:\Users\ADMIN\AppData\Local\Temp\cc30vqtN.s 			page 3


  35:main.c        ****     }
  36:main.c        ****     
  37:main.c        ****     SW_UpDown_ClearInterrupt();
  81              		.loc 1 37 0
  82 000c FFF7FEFF 		bl	SW_UpDown_ClearInterrupt
  83              	.LVL2:
  38:main.c        **** }
  84              		.loc 1 38 0
  85              		@ sp needed
  86 0010 10BD     		pop	{r4, pc}
  87              	.L6:
  88 0012 C046     		.align	2
  89              	.L5:
  90 0014 00000000 		.word	.LANCHOR0
  91              		.cfi_endproc
  92              	.LFE34:
  93              		.size	SW_UpDown_Handler, .-SW_UpDown_Handler
  94              		.section	.text.main,"ax",%progbits
  95              		.align	2
  96              		.global	main
  97              		.code	16
  98              		.thumb_func
  99              		.type	main, %function
 100              	main:
 101              	.LFB35:
  39:main.c        **** 
  40:main.c        **** 
  41:main.c        **** int main(void)
  42:main.c        **** {
 102              		.loc 1 42 0
 103              		.cfi_startproc
 104              		@ args = 0, pretend = 0, frame = 16
 105              		@ frame_needed = 0, uses_anonymous_args = 0
 106 0000 10B5     		push	{r4, lr}
 107              		.cfi_def_cfa_offset 8
 108              		.cfi_offset 4, -8
 109              		.cfi_offset 14, -4
 110 0002 84B0     		sub	sp, sp, #16
 111              		.cfi_def_cfa_offset 24
  43:main.c        ****     //print("START");
  44:main.c        ****     
  45:main.c        ****     CyGlobalIntEnable; /* Enable global interrupts. */
 112              		.loc 1 45 0
 113              		.syntax divided
 114              	@ 45 "main.c" 1
 115 0004 62B6     		CPSIE   i
 116              	@ 0 "" 2
  46:main.c        ****     
  47:main.c        ****     
  48:main.c        ****     I2C_Start();
 117              		.loc 1 48 0
 118              		.thumb
 119              		.syntax unified
 120 0006 FFF7FEFF 		bl	I2C_Start
 121              	.LVL3:
  49:main.c        ****     UART_Start();
 122              		.loc 1 49 0
ARM GAS  C:\Users\ADMIN\AppData\Local\Temp\cc30vqtN.s 			page 4


 123 000a FFF7FEFF 		bl	UART_Start
 124              	.LVL4:
  50:main.c        ****     Clock_Start();
 125              		.loc 1 50 0
 126 000e FFF7FEFF 		bl	Clock_Start
 127              	.LVL5:
  51:main.c        ****     
  52:main.c        ****     PWM_RED_Start();
 128              		.loc 1 52 0
 129 0012 FFF7FEFF 		bl	PWM_RED_Start
 130              	.LVL6:
  53:main.c        ****     PWM_GREEN_Start();
 131              		.loc 1 53 0
 132 0016 FFF7FEFF 		bl	PWM_GREEN_Start
 133              	.LVL7:
  54:main.c        ****     PWM_BLUE_Start();
 134              		.loc 1 54 0
 135 001a FFF7FEFF 		bl	PWM_BLUE_Start
 136              	.LVL8:
  55:main.c        ****     
  56:main.c        ****     LED(black_led);
 137              		.loc 1 56 0
 138 001e 4649     		ldr	r1, .L22
 139 0020 0A78     		ldrb	r2, [r1]
 140 0022 4878     		ldrb	r0, [r1, #1]
 141 0024 0002     		lsls	r0, r0, #8
 142 0026 0300     		movs	r3, r0
 143 0028 1343     		orrs	r3, r2
 144 002a 8878     		ldrb	r0, [r1, #2]
 145 002c 0004     		lsls	r0, r0, #16
 146 002e 1843     		orrs	r0, r3
 147 0030 FFF7FEFF 		bl	LED
 148              	.LVL9:
  57:main.c        ****     
  58:main.c        ****     ADC_Start();
 149              		.loc 1 58 0
 150 0034 FFF7FEFF 		bl	ADC_Start
 151              	.LVL10:
  59:main.c        ****     ADC_StartConvert();
 152              		.loc 1 59 0
 153 0038 FFF7FEFF 		bl	ADC_StartConvert
 154              	.LVL11:
  60:main.c        **** 
  61:main.c        ****     isr_SW_StartEx(SW_Handler);
 155              		.loc 1 61 0
 156 003c 3F48     		ldr	r0, .L22+4
 157 003e FFF7FEFF 		bl	isr_SW_StartEx
 158              	.LVL12:
  62:main.c        ****     isr_SW_UpDown_StartEx(SW_UpDown_Handler);
 159              		.loc 1 62 0
 160 0042 3F48     		ldr	r0, .L22+8
 161 0044 FFF7FEFF 		bl	isr_SW_UpDown_StartEx
 162              	.LVL13:
  63:main.c        ****     
  64:main.c        ****     while (_tcs34725Initialised == false){
 163              		.loc 1 64 0
 164 0048 03E0     		b	.L8
ARM GAS  C:\Users\ADMIN\AppData\Local\Temp\cc30vqtN.s 			page 5


 165              	.L9:
  65:main.c        ****         init(TCS34725_INTEGRATIONTIME_24MS, TCS34725_GAIN_1X);
 166              		.loc 1 65 0
 167 004a 0021     		movs	r1, #0
 168 004c F620     		movs	r0, #246
 169 004e FFF7FEFF 		bl	init
 170              	.LVL14:
 171              	.L8:
  64:main.c        ****         init(TCS34725_INTEGRATIONTIME_24MS, TCS34725_GAIN_1X);
 172              		.loc 1 64 0
 173 0052 3C4B     		ldr	r3, .L22+12
 174 0054 1B78     		ldrb	r3, [r3]
 175 0056 002B     		cmp	r3, #0
 176 0058 F7D0     		beq	.L9
 177              	.LVL15:
  66:main.c        ****     }
  67:main.c        ****       
  68:main.c        ****     int red, green, blue;
  69:main.c        ****     uint8_t color = 0;
  70:main.c        ****     
  71:main.c        ****     struct motors gates = {1, 1, 1};
 178              		.loc 1 71 0
 179 005a 0322     		movs	r2, #3
 180 005c 3A49     		ldr	r1, .L22+16
 181 005e 6846     		mov	r0, sp
 182 0060 FFF7FEFF 		bl	memcpy
 183              	.LVL16:
  72:main.c        ****     
  73:main.c        ****     OpenCloseGates(gates);
 184              		.loc 1 73 0
 185 0064 0098     		ldr	r0, [sp]
 186 0066 FFF7FEFF 		bl	OpenCloseGates
 187              	.LVL17:
  74:main.c        ****     CyDelay(1000);
 188              		.loc 1 74 0
 189 006a FA20     		movs	r0, #250
 190 006c 8000     		lsls	r0, r0, #2
 191 006e FFF7FEFF 		bl	CyDelay
 192              	.LVL18:
  75:main.c        ****     
  76:main.c        ****     PWM_Container_Start();
 193              		.loc 1 76 0
 194 0072 FFF7FEFF 		bl	PWM_Container_Start
 195              	.LVL19:
  77:main.c        ****     PWM_Container_WriteCompare(0);
 196              		.loc 1 77 0
 197 0076 0020     		movs	r0, #0
 198 0078 FFF7FEFF 		bl	PWM_Container_WriteCompare
 199              	.LVL20:
  78:main.c        ****     
  79:main.c        ****     while (count_settings < 8){
 200              		.loc 1 79 0
 201 007c 0BE0     		b	.L10
 202              	.L11:
  80:main.c        ****         preparation(count_settings);
 203              		.loc 1 80 0
 204 007e FFF7FEFF 		bl	preparation
ARM GAS  C:\Users\ADMIN\AppData\Local\Temp\cc30vqtN.s 			page 6


 205              	.LVL21:
  81:main.c        ****         sprintf(str, "count_set %d", count_settings);
 206              		.loc 1 81 0
 207 0082 324B     		ldr	r3, .L22+20
 208 0084 1A68     		ldr	r2, [r3]
 209 0086 324C     		ldr	r4, .L22+24
 210 0088 3249     		ldr	r1, .L22+28
 211 008a 2000     		movs	r0, r4
 212 008c FFF7FEFF 		bl	sprintf
 213              	.LVL22:
  82:main.c        ****         print(str);
 214              		.loc 1 82 0
 215 0090 2000     		movs	r0, r4
 216 0092 FFF7FEFF 		bl	print
 217              	.LVL23:
 218              	.L10:
  79:main.c        ****         preparation(count_settings);
 219              		.loc 1 79 0
 220 0096 2D4B     		ldr	r3, .L22+20
 221 0098 1868     		ldr	r0, [r3]
 222 009a 0728     		cmp	r0, #7
 223 009c EFDD     		ble	.L11
  83:main.c        ****     }
  84:main.c        ****     
  85:main.c        ****     PWM_Container_WriteCompare(1);
 224              		.loc 1 85 0
 225 009e 0120     		movs	r0, #1
 226 00a0 FFF7FEFF 		bl	PWM_Container_WriteCompare
 227              	.LVL24:
 228              	.L12:
  86:main.c        ****     
  87:main.c        ****     for(;;)
  88:main.c        ****     {  
  89:main.c        ****         sprintf(str, "joystick %d   \n", joystick);
 229              		.loc 1 89 0
 230 00a4 294B     		ldr	r3, .L22+20
 231 00a6 9A88     		ldrh	r2, [r3, #4]
 232 00a8 2B49     		ldr	r1, .L22+32
 233 00aa 2948     		ldr	r0, .L22+24
 234 00ac FFF7FEFF 		bl	sprintf
 235              	.LVL25:
  90:main.c        ****         //print(str);
  91:main.c        ****         
  92:main.c        ****         state = CANDY;
 236              		.loc 1 92 0
 237 00b0 2A4C     		ldr	r4, .L22+36
 238 00b2 0123     		movs	r3, #1
 239 00b4 2370     		strb	r3, [r4]
  93:main.c        ****         getRGB(&red, &green, &blue);
 240              		.loc 1 93 0
 241 00b6 01AA     		add	r2, sp, #4
 242 00b8 02A9     		add	r1, sp, #8
 243 00ba 03A8     		add	r0, sp, #12
 244 00bc FFF7FEFF 		bl	getRGB
 245              	.LVL26:
  94:main.c        ****         color = getColor(red, green, blue);
 246              		.loc 1 94 0
ARM GAS  C:\Users\ADMIN\AppData\Local\Temp\cc30vqtN.s 			page 7


 247 00c0 019A     		ldr	r2, [sp, #4]
 248 00c2 0299     		ldr	r1, [sp, #8]
 249 00c4 0398     		ldr	r0, [sp, #12]
 250 00c6 FFF7FEFF 		bl	getColor
 251              	.LVL27:
  95:main.c        ****             
  96:main.c        ****         if (state == CANDY){
 252              		.loc 1 96 0
 253 00ca 2378     		ldrb	r3, [r4]
 254 00cc 002B     		cmp	r3, #0
 255 00ce E9D0     		beq	.L12
  97:main.c        ****             
  98:main.c        ****             switch (color){
 256              		.loc 1 98 0
 257 00d0 0628     		cmp	r0, #6
 258 00d2 2CD8     		bhi	.L13
 259 00d4 8000     		lsls	r0, r0, #2
 260              	.LVL28:
 261 00d6 224B     		ldr	r3, .L22+40
 262 00d8 1B58     		ldr	r3, [r3, r0]
 263 00da 9F46     		mov	pc, r3
 264              		.section	.rodata
 265              		.align	2
 266              	.L15:
 267 0000 2E010000 		.word	.L13
 268 0004 DC000000 		.word	.L14
 269 0008 F6000000 		.word	.L16
 270 000c E8000000 		.word	.L17
 271 0010 06010000 		.word	.L18
 272 0014 14010000 		.word	.L19
 273 0018 22010000 		.word	.L20
 274              		.section	.text.main
 275              	.L14:
  99:main.c        ****                 case RED:
 100:main.c        ****                     gates = (struct motors){0, 0, 0};
 276              		.loc 1 100 0
 277 00dc 0023     		movs	r3, #0
 278 00de 6A46     		mov	r2, sp
 279 00e0 1370     		strb	r3, [r2]
 280 00e2 5370     		strb	r3, [r2, #1]
 281 00e4 9370     		strb	r3, [r2, #2]
 101:main.c        ****                     break;
 282              		.loc 1 101 0
 283 00e6 22E0     		b	.L13
 284              	.L17:
 102:main.c        ****                 case ORANGE:
 103:main.c        ****                     gates = (struct motors){0, 0, 1};
 285              		.loc 1 103 0
 286 00e8 0023     		movs	r3, #0
 287 00ea 6A46     		mov	r2, sp
 288 00ec 1370     		strb	r3, [r2]
 289 00ee 5370     		strb	r3, [r2, #1]
 290 00f0 0133     		adds	r3, r3, #1
 291 00f2 9370     		strb	r3, [r2, #2]
 104:main.c        ****                     break;
 292              		.loc 1 104 0
 293 00f4 1BE0     		b	.L13
ARM GAS  C:\Users\ADMIN\AppData\Local\Temp\cc30vqtN.s 			page 8


 294              	.L16:
 105:main.c        ****                 case YELLOW:
 106:main.c        ****                     gates = (struct motors){0, 1, 0};
 295              		.loc 1 106 0
 296 00f6 0023     		movs	r3, #0
 297 00f8 6A46     		mov	r2, sp
 298 00fa 1370     		strb	r3, [r2]
 299 00fc 0122     		movs	r2, #1
 300 00fe 6946     		mov	r1, sp
 301 0100 4A70     		strb	r2, [r1, #1]
 302 0102 8B70     		strb	r3, [r1, #2]
 107:main.c        ****                     break;
 303              		.loc 1 107 0
 304 0104 13E0     		b	.L13
 305              	.L18:
 108:main.c        ****                 case GREEN:
 109:main.c        ****                     gates = (struct motors){0, 1, 1};
 306              		.loc 1 109 0
 307 0106 0322     		movs	r2, #3
 308 0108 0F49     		ldr	r1, .L22+16
 309 010a 0431     		adds	r1, r1, #4
 310 010c 6846     		mov	r0, sp
 311 010e FFF7FEFF 		bl	memcpy
 312              	.LVL29:
 110:main.c        ****                     break;
 313              		.loc 1 110 0
 314 0112 0CE0     		b	.L13
 315              	.L19:
 111:main.c        ****                 case BLUE:
 112:main.c        ****                     gates = (struct motors){1, 0, 0};
 316              		.loc 1 112 0
 317 0114 0123     		movs	r3, #1
 318 0116 6A46     		mov	r2, sp
 319 0118 1370     		strb	r3, [r2]
 320 011a 0023     		movs	r3, #0
 321 011c 5370     		strb	r3, [r2, #1]
 322 011e 9370     		strb	r3, [r2, #2]
 113:main.c        ****                     break;
 323              		.loc 1 113 0
 324 0120 05E0     		b	.L13
 325              	.L20:
 114:main.c        ****                 case BROWN:
 115:main.c        ****                     gates = (struct motors){1, 0, 1};
 326              		.loc 1 115 0
 327 0122 0322     		movs	r2, #3
 328 0124 0849     		ldr	r1, .L22+16
 329 0126 0831     		adds	r1, r1, #8
 330 0128 6846     		mov	r0, sp
 331 012a FFF7FEFF 		bl	memcpy
 332              	.LVL30:
 333              	.L13:
 116:main.c        ****                     break;
 117:main.c        ****             }
 118:main.c        ****             OpenCloseGates(gates);
 334              		.loc 1 118 0
 335 012e 0098     		ldr	r0, [sp]
 336 0130 FFF7FEFF 		bl	OpenCloseGates
ARM GAS  C:\Users\ADMIN\AppData\Local\Temp\cc30vqtN.s 			page 9


 337              	.LVL31:
 338 0134 B6E7     		b	.L12
 339              	.L23:
 340 0136 C046     		.align	2
 341              	.L22:
 342 0138 00000000 		.word	black_led
 343 013c 00000000 		.word	SW_Handler
 344 0140 00000000 		.word	SW_UpDown_Handler
 345 0144 00000000 		.word	_tcs34725Initialised
 346 0148 1C000000 		.word	.LANCHOR1
 347 014c 00000000 		.word	.LANCHOR0
 348 0150 00000000 		.word	str
 349 0154 00000000 		.word	.LC12
 350 0158 10000000 		.word	.LC15
 351 015c 00000000 		.word	state
 352 0160 00000000 		.word	.L15
 353              		.cfi_endproc
 354              	.LFE35:
 355              		.size	main, .-main
 356              		.global	joystick
 357              		.global	count_settings
 358              		.comm	max_none_color,12,4
 359              		.comm	min_none_color,12,4
 360              		.comm	button_pushed,1,1
 361              		.section	.rodata
 362              		.align	2
 363              		.set	.LANCHOR1,. + 0
 364              	.LC0:
 365 001c 01       		.byte	1
 366 001d 01       		.byte	1
 367 001e 01       		.byte	1
 368 001f 00       		.space	1
 369              	.LC1:
 370 0020 00       		.byte	0
 371 0021 01       		.byte	1
 372 0022 01       		.byte	1
 373 0023 00       		.space	1
 374              	.LC2:
 375 0024 01       		.byte	1
 376 0025 00       		.byte	0
 377 0026 01       		.byte	1
 378              		.section	.rodata.str1.4,"aMS",%progbits,1
 379              		.align	2
 380              	.LC12:
 381 0000 636F756E 		.ascii	"count_set %d\000"
 381      745F7365 
 381      74202564 
 381      00
 382 000d 000000   		.space	3
 383              	.LC15:
 384 0010 6A6F7973 		.ascii	"joystick %d   \012\000"
 384      7469636B 
 384      20256420 
 384      20200A00 
 385              		.bss
 386              		.align	2
 387              		.set	.LANCHOR0,. + 0
ARM GAS  C:\Users\ADMIN\AppData\Local\Temp\cc30vqtN.s 			page 10


 388              		.type	count_settings, %object
 389              		.size	count_settings, 4
 390              	count_settings:
 391 0000 00000000 		.space	4
 392              		.type	joystick, %object
 393              		.size	joystick, 2
 394              	joystick:
 395 0004 0000     		.space	2
 396              		.text
 397              	.Letext0:
 398              		.file 2 "c:\\program files (x86)\\cypress\\psoc creator\\4.4\\psoc creator\\import\\gnu\\arm\\5.4.
 399              		.file 3 "c:\\program files (x86)\\cypress\\psoc creator\\4.4\\psoc creator\\import\\gnu\\arm\\5.4.
 400              		.file 4 "Generated_Source\\PSoC4/cytypes.h"
 401              		.file 5 "gates.h"
 402              		.file 6 "tcs34725.h"
 403              		.file 7 "Generated_Source\\PSoC4/SW.h"
 404              		.file 8 "Generated_Source\\PSoC4/ADC.h"
 405              		.file 9 "Generated_Source\\PSoC4/SW_UpDown.h"
 406              		.file 10 "Generated_Source\\PSoC4/I2C.h"
 407              		.file 11 "Generated_Source\\PSoC4/UART.h"
 408              		.file 12 "Generated_Source\\PSoC4/Clock.h"
 409              		.file 13 "Generated_Source\\PSoC4/PWM_RED.h"
 410              		.file 14 "Generated_Source\\PSoC4/PWM_GREEN.h"
 411              		.file 15 "Generated_Source\\PSoC4/PWM_BLUE.h"
 412              		.file 16 "Generated_Source\\PSoC4/isr_SW.h"
 413              		.file 17 "Generated_Source\\PSoC4/isr_SW_UpDown.h"
 414              		.file 18 "Generated_Source\\PSoC4/CyLib.h"
 415              		.file 19 "Generated_Source\\PSoC4/PWM_Container.h"
 416              		.file 20 "c:\\program files (x86)\\cypress\\psoc creator\\4.4\\psoc creator\\import\\gnu\\arm\\5.4
 417              		.file 21 "utils.h"