ARM GAS  C:\Users\ADMIN\AppData\Local\Temp\cckytse1.s 			page 1


   1              		.syntax unified
   2              		.cpu cortex-m0
   3              		.fpu softvfp
   4              		.eabi_attribute 20, 1
   5              		.eabi_attribute 21, 1
   6              		.eabi_attribute 23, 3
   7              		.eabi_attribute 24, 1
   8              		.eabi_attribute 25, 1
   9              		.eabi_attribute 26, 1
  10              		.eabi_attribute 30, 1
  11              		.eabi_attribute 34, 0
  12              		.eabi_attribute 18, 4
  13              		.thumb
  14              		.syntax unified
  15              		.file	"StripLights.c"
  16              		.text
  17              	.Ltext0:
  18              		.cfi_sections	.debug_frame
  19              		.section	.text.StripLights_Trigger,"ax",%progbits
  20              		.align	2
  21              		.global	StripLights_Trigger
  22              		.code	16
  23              		.thumb_func
  24              		.type	StripLights_Trigger, %function
  25              	StripLights_Trigger:
  26              	.LFB33:
  27              		.file 1 "Generated_Source\\PSoC4\\StripLights.c"
   1:Generated_Source\PSoC4/StripLights.c **** /* =========================================================
   2:Generated_Source\PSoC4/StripLights.c ****  *
   3:Generated_Source\PSoC4/StripLights.c ****  * Strip Light Controller
   4:Generated_Source\PSoC4/StripLights.c ****  * By Mark Hastings
   5:Generated_Source\PSoC4/StripLights.c ****  *
   6:Generated_Source\PSoC4/StripLights.c ****  * 05/27/2013  v1.0  Mark Hastings   Initial working version
   7:Generated_Source\PSoC4/StripLights.c ****  * 09/04/2013  v1.3  Mark Hastings   Add more features and color lookup.
   8:Generated_Source\PSoC4/StripLights.c ****  * 12/02/2013  v1.6  Mark Hastings   Added a couple more functions.
   9:Generated_Source\PSoC4/StripLights.c ****  *
  10:Generated_Source\PSoC4/StripLights.c ****  * This file contains the functions required to control each
  11:Generated_Source\PSoC4/StripLights.c ****  * lighting control channel.
  12:Generated_Source\PSoC4/StripLights.c ****  *
  13:Generated_Source\PSoC4/StripLights.c ****  * =========================================================
  14:Generated_Source\PSoC4/StripLights.c **** */
  15:Generated_Source\PSoC4/StripLights.c **** 
  16:Generated_Source\PSoC4/StripLights.c **** #include <project.h>
  17:Generated_Source\PSoC4/StripLights.c **** #include "cytypes.h"
  18:Generated_Source\PSoC4/StripLights.c **** #include "stdlib.h"
  19:Generated_Source\PSoC4/StripLights.c **** #include "cyfitter.h"
  20:Generated_Source\PSoC4/StripLights.c **** #include "StripLights.h"
  21:Generated_Source\PSoC4/StripLights.c **** #include "StripLights_fonts.h"
  22:Generated_Source\PSoC4/StripLights.c **** 
  23:Generated_Source\PSoC4/StripLights.c **** uint8  StripLights_initvar = 0;
  24:Generated_Source\PSoC4/StripLights.c **** 
  25:Generated_Source\PSoC4/StripLights.c **** #if(StripLights_MEMORY_TYPE == StripLights_MEMORY_RGB)
  26:Generated_Source\PSoC4/StripLights.c **** uint32  StripLights_ledArray[StripLights_ARRAY_ROWS][StripLights_ARRAY_COLS];
  27:Generated_Source\PSoC4/StripLights.c **** #else
  28:Generated_Source\PSoC4/StripLights.c **** uint8   StripLights_ledArray[StripLights_ARRAY_ROWS][StripLights_ARRAY_COLS];
  29:Generated_Source\PSoC4/StripLights.c **** #endif
  30:Generated_Source\PSoC4/StripLights.c **** 
ARM GAS  C:\Users\ADMIN\AppData\Local\Temp\cckytse1.s 			page 2


  31:Generated_Source\PSoC4/StripLights.c **** uint32  StripLights_ledIndex = 0;  
  32:Generated_Source\PSoC4/StripLights.c **** uint32  StripLights_row = 0;
  33:Generated_Source\PSoC4/StripLights.c **** uint32  StripLights_refreshComplete;
  34:Generated_Source\PSoC4/StripLights.c **** 
  35:Generated_Source\PSoC4/StripLights.c **** uint32  StripLights_DimMask;
  36:Generated_Source\PSoC4/StripLights.c **** uint32  StripLights_DimShift;
  37:Generated_Source\PSoC4/StripLights.c **** 
  38:Generated_Source\PSoC4/StripLights.c **** uint8 StripLights_Channel;
  39:Generated_Source\PSoC4/StripLights.c **** 
  40:Generated_Source\PSoC4/StripLights.c **** #if(StripLights_CHIP == StripLights_CHIP_WS2812)
  41:Generated_Source\PSoC4/StripLights.c **** const uint32 StripLights_CLUT[ ] = {
  42:Generated_Source\PSoC4/StripLights.c **** //xxBBRRGG (WS2812)
  43:Generated_Source\PSoC4/StripLights.c **** //     (24)   [ Index = 0 ]
  44:Generated_Source\PSoC4/StripLights.c **** 0x0000FFFF,  // 0 Yellow
  45:Generated_Source\PSoC4/StripLights.c **** 0x0000CCFF,
  46:Generated_Source\PSoC4/StripLights.c **** 0x000099FF,
  47:Generated_Source\PSoC4/StripLights.c **** 0x000033FF,
  48:Generated_Source\PSoC4/StripLights.c **** 0x000000FF,  // 5  Green
  49:Generated_Source\PSoC4/StripLights.c **** 0x006600B3,
  50:Generated_Source\PSoC4/StripLights.c **** 0x00990099, 
  51:Generated_Source\PSoC4/StripLights.c **** 0x00B30066, 
  52:Generated_Source\PSoC4/StripLights.c **** 0x00CC0033,  // 9 Blue
  53:Generated_Source\PSoC4/StripLights.c **** 0x00B31919, 
  54:Generated_Source\PSoC4/StripLights.c **** 0x00993300, 
  55:Generated_Source\PSoC4/StripLights.c **** 0x00994000, 
  56:Generated_Source\PSoC4/StripLights.c **** 0x00996600, 
  57:Generated_Source\PSoC4/StripLights.c **** 0x00999900, 
  58:Generated_Source\PSoC4/StripLights.c **** 0x0099CC00, 
  59:Generated_Source\PSoC4/StripLights.c **** 0x0066E600, 
  60:Generated_Source\PSoC4/StripLights.c **** 0x0000FF00, 
  61:Generated_Source\PSoC4/StripLights.c **** 0x0000FF33, 
  62:Generated_Source\PSoC4/StripLights.c **** 0x0000FF66, 
  63:Generated_Source\PSoC4/StripLights.c **** 0x0000FF80, 
  64:Generated_Source\PSoC4/StripLights.c **** 0x0000FF99,  // 20 Orange
  65:Generated_Source\PSoC4/StripLights.c **** 0x0000FFB2, 
  66:Generated_Source\PSoC4/StripLights.c **** 0x0000FFCC, 
  67:Generated_Source\PSoC4/StripLights.c **** 0x0000FFE5,
  68:Generated_Source\PSoC4/StripLights.c **** // #24
  69:Generated_Source\PSoC4/StripLights.c **** 
  70:Generated_Source\PSoC4/StripLights.c **** //xxBBRRGG  (64)  [ Index = 24 ]
  71:Generated_Source\PSoC4/StripLights.c **** 0x00000000, 0x00550000, 0x00AA0000, 0x00FF0000,  // 0, Black,  LtBlue, MBlue, Blue
  72:Generated_Source\PSoC4/StripLights.c **** 0x00000055, 0x00550055, 0x00AA0055, 0x00FF0055,  // 4, LtGreen
  73:Generated_Source\PSoC4/StripLights.c **** 0x000000AA, 0x005500AA, 0x00AA00AA, 0x00FF00AA,  // 8, MGreen
  74:Generated_Source\PSoC4/StripLights.c **** 0x000000FF, 0x005500FF, 0x00AA00FF, 0x00FF00FF,  // 12 Green
  75:Generated_Source\PSoC4/StripLights.c **** 
  76:Generated_Source\PSoC4/StripLights.c **** 0x00005500, 0x00555500, 0x00AA5500, 0x00FF5500,  // 16, LtRed
  77:Generated_Source\PSoC4/StripLights.c **** 0x00005555, 0x00555555, 0x00AA5555, 0x00FF5555,  // 20, LtYellow
  78:Generated_Source\PSoC4/StripLights.c **** 0x000055AA, 0x005555AA, 0x00AA55AA, 0x00FF55AA,  // 24, 
  79:Generated_Source\PSoC4/StripLights.c **** 0x000055FF, 0x005555FF, 0x00AA55FF, 0x00FF55FF,  // 28,
  80:Generated_Source\PSoC4/StripLights.c **** 
  81:Generated_Source\PSoC4/StripLights.c **** 0x0000AA00, 0x0055AA00, 0x00AAAA00, 0x00FFAA00,  // 32, MRed
  82:Generated_Source\PSoC4/StripLights.c **** 0x0000AA55, 0x0055AA55, 0x00AAAA55, 0x00FFAA55,  // 36, 
  83:Generated_Source\PSoC4/StripLights.c **** 0x0000AAAA, 0x0055AAAA, 0x00AAAAAA, 0x00FFAAAA,  // 55, 
  84:Generated_Source\PSoC4/StripLights.c **** 0x0000AAFF, 0x0055AAFF, 0x00AAAAFF, 0x00FFAAFF,  // 44, 
  85:Generated_Source\PSoC4/StripLights.c **** 
  86:Generated_Source\PSoC4/StripLights.c **** 0x0000FF00, 0x0055FF00, 0x00AAFF00, 0x00FFFF00,  // 48, Red, ??, ??, Magenta
  87:Generated_Source\PSoC4/StripLights.c **** 0x0000FF55, 0x0055FF55, 0x00AAFF55, 0x00FFFF55,  // 52,
ARM GAS  C:\Users\ADMIN\AppData\Local\Temp\cckytse1.s 			page 3


  88:Generated_Source\PSoC4/StripLights.c **** 0x0000FFAA, 0x0055FFAA, 0x00AAFFAA, 0x00FFFFAA,  // 56,
  89:Generated_Source\PSoC4/StripLights.c **** 0x0000FFFF, 0x0055FFFF, 0x00AAFFFF, 0x00FFFFFF,  // 60, Yellow,??, ??, White
  90:Generated_Source\PSoC4/StripLights.c **** 
  91:Generated_Source\PSoC4/StripLights.c **** // Misc ( 16 )  [ Index = 88 ]
  92:Generated_Source\PSoC4/StripLights.c **** 0x000080FF,  // SPRING_GREEN
  93:Generated_Source\PSoC4/StripLights.c **** 0x008000FF,  // TURQUOSE
  94:Generated_Source\PSoC4/StripLights.c **** 0x00FF00FF,  // CYAN
  95:Generated_Source\PSoC4/StripLights.c **** 0x00FF0080,  // OCEAN
  96:Generated_Source\PSoC4/StripLights.c **** 0x00FF8000,  // VIOLET
  97:Generated_Source\PSoC4/StripLights.c **** 0x0080FF00,  // RASPBERRY
  98:Generated_Source\PSoC4/StripLights.c **** 0x000000FF,  // GREEN
  99:Generated_Source\PSoC4/StripLights.c **** 0x00202020,  // DIM WHITE
 100:Generated_Source\PSoC4/StripLights.c **** 0x00200000,  // DIM BLUE
 101:Generated_Source\PSoC4/StripLights.c **** 0x10000000,  // INVISIBLE
 102:Generated_Source\PSoC4/StripLights.c **** 0x00000000,  // Spare
 103:Generated_Source\PSoC4/StripLights.c **** 0x00000000,  // Spare
 104:Generated_Source\PSoC4/StripLights.c **** 0x00000000,  // Spare
 105:Generated_Source\PSoC4/StripLights.c **** 0x00000000,  // Spare
 106:Generated_Source\PSoC4/StripLights.c **** 0x00000000,  // Spare
 107:Generated_Source\PSoC4/StripLights.c **** 0x00000000,  // Spare
 108:Generated_Source\PSoC4/StripLights.c **** 
 109:Generated_Source\PSoC4/StripLights.c **** // Temperture Color Blue to Red (16) [ Index = 104 ]
 110:Generated_Source\PSoC4/StripLights.c **** 0x00FF0000, 0x00F01000, 0x00E02000, 0x00D03000,
 111:Generated_Source\PSoC4/StripLights.c **** 0x00C04000, 0x00B05000, 0x00A06000, 0x00907000,
 112:Generated_Source\PSoC4/StripLights.c **** 0x00808000, 0x00709000, 0x0060A000, 0x0050B000,
 113:Generated_Source\PSoC4/StripLights.c **** 0x0040C000, 0x0030D000, 0x0020E000, 0x0000FF00
 114:Generated_Source\PSoC4/StripLights.c **** };
 115:Generated_Source\PSoC4/StripLights.c **** #else  //xxBBGGRR (WS2811)
 116:Generated_Source\PSoC4/StripLights.c **** const uint32 StripLights_CLUT[ ] = {
 117:Generated_Source\PSoC4/StripLights.c **** //     (24)   [ Index = 0 ]
 118:Generated_Source\PSoC4/StripLights.c **** 0x0000FFFF,  // 0 Yellow
 119:Generated_Source\PSoC4/StripLights.c **** 0x0000FFCC,
 120:Generated_Source\PSoC4/StripLights.c **** 0x0000FF99,
 121:Generated_Source\PSoC4/StripLights.c **** 0x0000FF33,
 122:Generated_Source\PSoC4/StripLights.c **** 0x0000FF00,  // 5  Green
 123:Generated_Source\PSoC4/StripLights.c **** 0x0066B300,
 124:Generated_Source\PSoC4/StripLights.c **** 0x00999900, 
 125:Generated_Source\PSoC4/StripLights.c **** 0x00B36600, 
 126:Generated_Source\PSoC4/StripLights.c **** 0x00CC3300,  // 9 Blue
 127:Generated_Source\PSoC4/StripLights.c **** 0x00B31919, 
 128:Generated_Source\PSoC4/StripLights.c **** 0x00990033, 
 129:Generated_Source\PSoC4/StripLights.c **** 0x00990040, 
 130:Generated_Source\PSoC4/StripLights.c **** 0x00990066, 
 131:Generated_Source\PSoC4/StripLights.c **** 0x00990099, 
 132:Generated_Source\PSoC4/StripLights.c **** 0x009900CC, 
 133:Generated_Source\PSoC4/StripLights.c **** 0x006600E6, 
 134:Generated_Source\PSoC4/StripLights.c **** 0x000000FF, 
 135:Generated_Source\PSoC4/StripLights.c **** 0x000033FF, 
 136:Generated_Source\PSoC4/StripLights.c **** 0x000066FF, 
 137:Generated_Source\PSoC4/StripLights.c **** 0x000080FF, 
 138:Generated_Source\PSoC4/StripLights.c **** 0x000099FF,  // 20 Orange
 139:Generated_Source\PSoC4/StripLights.c **** 0x0000B2FF, 
 140:Generated_Source\PSoC4/StripLights.c **** 0x0000CCFF, 
 141:Generated_Source\PSoC4/StripLights.c **** 0x0000E5FF,
 142:Generated_Source\PSoC4/StripLights.c **** // #24
 143:Generated_Source\PSoC4/StripLights.c **** 
 144:Generated_Source\PSoC4/StripLights.c **** //xxBBRRGG  (64)  [ Index = 24 ]
ARM GAS  C:\Users\ADMIN\AppData\Local\Temp\cckytse1.s 			page 4


 145:Generated_Source\PSoC4/StripLights.c **** 0x00000000, 0x00550000, 0x00AA0000, 0x00FF0000,  // 0, Black,  LtBlue, MBlue, Blue
 146:Generated_Source\PSoC4/StripLights.c **** 0x00005500, 0x00555500, 0x00AA5500, 0x00FF5500,  // 4, LtGreen
 147:Generated_Source\PSoC4/StripLights.c **** 0x0000AA00, 0x0055AA00, 0x00AAAA00, 0x00FFAA00,  // 8, MGreen
 148:Generated_Source\PSoC4/StripLights.c **** 0x0000FF00, 0x0055FF00, 0x00AAFF00, 0x00FFFF00,  // 12 Green
 149:Generated_Source\PSoC4/StripLights.c **** 
 150:Generated_Source\PSoC4/StripLights.c **** 0x00000055, 0x00550055, 0x00AA0055, 0x00FF0055,  // 16, LtRed
 151:Generated_Source\PSoC4/StripLights.c **** 0x00005555, 0x00555555, 0x00AA5555, 0x00FF5555,  // 20, LtYellow
 152:Generated_Source\PSoC4/StripLights.c **** 0x0000AA55, 0x0055AA55, 0x00AAAA55, 0x00FFAA55,  // 24, 
 153:Generated_Source\PSoC4/StripLights.c **** 0x0000FF55, 0x0055FF55, 0x00AAFF55, 0x00FFFF55,  // 28,
 154:Generated_Source\PSoC4/StripLights.c **** 
 155:Generated_Source\PSoC4/StripLights.c **** 0x000000AA, 0x005500AA, 0x00AA00AA, 0x00FF00AA,  // 32, MRed
 156:Generated_Source\PSoC4/StripLights.c **** 0x000055AA, 0x005555AA, 0x00AA55AA, 0x00FF55AA,  // 36, 
 157:Generated_Source\PSoC4/StripLights.c **** 0x0000AAAA, 0x0055AAAA, 0x00AAAAAA, 0x00FFAAAA,  // 55, 
 158:Generated_Source\PSoC4/StripLights.c **** 0x0000FFAA, 0x0055FFAA, 0x00AAFFAA, 0x00FFFFAA,  // 44, 
 159:Generated_Source\PSoC4/StripLights.c **** 
 160:Generated_Source\PSoC4/StripLights.c **** 0x000000FF, 0x005500FF, 0x00AA00FF, 0x00F00FFF,  // 48, Red, ??, ??, Magenta
 161:Generated_Source\PSoC4/StripLights.c **** 0x000055FF, 0x005555FF, 0x00AA55FF, 0x00FF55FF,  // 52,
 162:Generated_Source\PSoC4/StripLights.c **** 0x0000AAFF, 0x0055AAFF, 0x00AAAAFF, 0x00FFAAFF,  // 56,
 163:Generated_Source\PSoC4/StripLights.c **** 0x0000FFFF, 0x0055FFFF, 0x00AAFFFF, 0x00FFFFFF,  // 60, Yellow,??, ??, White
 164:Generated_Source\PSoC4/StripLights.c **** 
 165:Generated_Source\PSoC4/StripLights.c **** // Misc ( 16 )  [ Index = 88 ]
 166:Generated_Source\PSoC4/StripLights.c **** 0x0000FF80,  // SPRING_GREEN
 167:Generated_Source\PSoC4/StripLights.c **** 0x0080FF00,  // TURQUOSE
 168:Generated_Source\PSoC4/StripLights.c **** 0x00FFFF00,  // CYAN
 169:Generated_Source\PSoC4/StripLights.c **** 0x00FF8000,  // OCEAN
 170:Generated_Source\PSoC4/StripLights.c **** 0x00FF0080,  // VIOLET
 171:Generated_Source\PSoC4/StripLights.c **** 0x008000FF,  // RASPBERRY
 172:Generated_Source\PSoC4/StripLights.c **** 0x0000FF00,  // GREEN
 173:Generated_Source\PSoC4/StripLights.c **** 0x00202020,  // DIM WHITE
 174:Generated_Source\PSoC4/StripLights.c **** 0x00200000,  // DIM BLUE
 175:Generated_Source\PSoC4/StripLights.c **** 0x10000000,  // INVISIBLE
 176:Generated_Source\PSoC4/StripLights.c **** 0x00000000,  // Spare
 177:Generated_Source\PSoC4/StripLights.c **** 0x00000000,  // Spare
 178:Generated_Source\PSoC4/StripLights.c **** 0x00000000,  // Spare
 179:Generated_Source\PSoC4/StripLights.c **** 0x00000000,  // Spare
 180:Generated_Source\PSoC4/StripLights.c **** 0x00000000,  // Spare
 181:Generated_Source\PSoC4/StripLights.c **** 0x00000000,  // Spare
 182:Generated_Source\PSoC4/StripLights.c **** 
 183:Generated_Source\PSoC4/StripLights.c **** // Temperture Color Blue to Red (16) [ Index = 104 ]
 184:Generated_Source\PSoC4/StripLights.c **** 0x00FF0000, 0x00F00010, 0x00E00020, 0x00D00030,
 185:Generated_Source\PSoC4/StripLights.c **** 0x00C00040, 0x00B00050, 0x00A00060, 0x00900070,
 186:Generated_Source\PSoC4/StripLights.c **** 0x00800080, 0x00700090, 0x006000A0, 0x005000B0,
 187:Generated_Source\PSoC4/StripLights.c **** 0x004000C0, 0x003000D0, 0x002000E0, 0x000000FF
 188:Generated_Source\PSoC4/StripLights.c **** };
 189:Generated_Source\PSoC4/StripLights.c **** #endif
 190:Generated_Source\PSoC4/StripLights.c **** 
 191:Generated_Source\PSoC4/StripLights.c **** 
 192:Generated_Source\PSoC4/StripLights.c **** 
 193:Generated_Source\PSoC4/StripLights.c **** /*******************************************************************************
 194:Generated_Source\PSoC4/StripLights.c **** * Function Name: StripLights_Start
 195:Generated_Source\PSoC4/StripLights.c **** ********************************************************************************
 196:Generated_Source\PSoC4/StripLights.c **** * Summary:
 197:Generated_Source\PSoC4/StripLights.c **** *  Initialize the hardware. 
 198:Generated_Source\PSoC4/StripLights.c **** *
 199:Generated_Source\PSoC4/StripLights.c **** * Parameters:  
 200:Generated_Source\PSoC4/StripLights.c **** *  void  
 201:Generated_Source\PSoC4/StripLights.c **** *
ARM GAS  C:\Users\ADMIN\AppData\Local\Temp\cckytse1.s 			page 5


 202:Generated_Source\PSoC4/StripLights.c **** * Return: 
 203:Generated_Source\PSoC4/StripLights.c **** *  void
 204:Generated_Source\PSoC4/StripLights.c **** *
 205:Generated_Source\PSoC4/StripLights.c **** *******************************************************************************/
 206:Generated_Source\PSoC4/StripLights.c **** void StripLights_Start()
 207:Generated_Source\PSoC4/StripLights.c **** {
 208:Generated_Source\PSoC4/StripLights.c ****     extern uint8 StripLights_initvar;
 209:Generated_Source\PSoC4/StripLights.c ****     extern uint32 StripLights_refreshComplete;
 210:Generated_Source\PSoC4/StripLights.c **** 
 211:Generated_Source\PSoC4/StripLights.c ****     StripLights_ACTL0_REG = StripLights_DISABLE_FIFO;
 212:Generated_Source\PSoC4/StripLights.c ****     
 213:Generated_Source\PSoC4/StripLights.c ****     StripLights_Period   = StripLights_PERIOD-1;
 214:Generated_Source\PSoC4/StripLights.c ****     StripLights_Compare0 = StripLights_DATA_ZERO;
 215:Generated_Source\PSoC4/StripLights.c ****     StripLights_Compare1 = StripLights_DATA_ONE;
 216:Generated_Source\PSoC4/StripLights.c ****     
 217:Generated_Source\PSoC4/StripLights.c ****     StripLights_CONTROL = StripLights_ENABLE;
 218:Generated_Source\PSoC4/StripLights.c ****     StripLights_MemClear(StripLights_OFF);
 219:Generated_Source\PSoC4/StripLights.c ****     StripLights_CONTROL = StripLights_DISABLE;
 220:Generated_Source\PSoC4/StripLights.c ****     
 221:Generated_Source\PSoC4/StripLights.c ****     StripLights_SetFont( StripLights_FONT_5X7);
 222:Generated_Source\PSoC4/StripLights.c ****     
 223:Generated_Source\PSoC4/StripLights.c ****     /* Set no dimming, full brightness */
 224:Generated_Source\PSoC4/StripLights.c ****     StripLights_Dim(0); 
 225:Generated_Source\PSoC4/StripLights.c **** 
 226:Generated_Source\PSoC4/StripLights.c ****     
 227:Generated_Source\PSoC4/StripLights.c ****     if(StripLights_initvar == 0)
 228:Generated_Source\PSoC4/StripLights.c ****     {
 229:Generated_Source\PSoC4/StripLights.c **** 
 230:Generated_Source\PSoC4/StripLights.c ****         StripLights_initvar = 1;
 231:Generated_Source\PSoC4/StripLights.c ****  
 232:Generated_Source\PSoC4/StripLights.c ****          /* Start and set interrupt vector */
 233:Generated_Source\PSoC4/StripLights.c **** 
 234:Generated_Source\PSoC4/StripLights.c **** #if(StripLights_TRANSFER == StripLights_TRANSFER_ISR)
 235:Generated_Source\PSoC4/StripLights.c ****        {
 236:Generated_Source\PSoC4/StripLights.c ****            StripLights_cisr_StartEx(StripLights_CISR);
 237:Generated_Source\PSoC4/StripLights.c **** 		   StripLights_fisr_StartEx(StripLights_FISR);
 238:Generated_Source\PSoC4/StripLights.c ****        }
 239:Generated_Source\PSoC4/StripLights.c **** #endif       
 240:Generated_Source\PSoC4/StripLights.c ****        if(StripLights_TRANSFER == StripLights_TRANSFER_FIRMWARE)
 241:Generated_Source\PSoC4/StripLights.c ****        {
 242:Generated_Source\PSoC4/StripLights.c ****            StripLights_CONTROL = StripLights_ENABLE;    
 243:Generated_Source\PSoC4/StripLights.c ****        }
 244:Generated_Source\PSoC4/StripLights.c ****     }
 245:Generated_Source\PSoC4/StripLights.c ****     StripLights_refreshComplete = 1;
 246:Generated_Source\PSoC4/StripLights.c **** }
 247:Generated_Source\PSoC4/StripLights.c **** 
 248:Generated_Source\PSoC4/StripLights.c **** 
 249:Generated_Source\PSoC4/StripLights.c **** /*******************************************************************************
 250:Generated_Source\PSoC4/StripLights.c **** * Function Name: StripLights_Trigger
 251:Generated_Source\PSoC4/StripLights.c **** ********************************************************************************
 252:Generated_Source\PSoC4/StripLights.c **** * Summary:
 253:Generated_Source\PSoC4/StripLights.c **** *   Update the LEDs with graphics memory.
 254:Generated_Source\PSoC4/StripLights.c **** *
 255:Generated_Source\PSoC4/StripLights.c **** * Parameters:  
 256:Generated_Source\PSoC4/StripLights.c **** *  void  
 257:Generated_Source\PSoC4/StripLights.c **** *
 258:Generated_Source\PSoC4/StripLights.c **** * Return: 
ARM GAS  C:\Users\ADMIN\AppData\Local\Temp\cckytse1.s 			page 6


 259:Generated_Source\PSoC4/StripLights.c **** *  void
 260:Generated_Source\PSoC4/StripLights.c **** *
 261:Generated_Source\PSoC4/StripLights.c **** *******************************************************************************/
 262:Generated_Source\PSoC4/StripLights.c **** void StripLights_Trigger(uint32 rst)
 263:Generated_Source\PSoC4/StripLights.c **** {
  28              		.loc 1 263 0
  29              		.cfi_startproc
  30              		@ args = 0, pretend = 0, frame = 0
  31              		@ frame_needed = 0, uses_anonymous_args = 0
  32              		@ link register save eliminated.
  33              	.LVL0:
 264:Generated_Source\PSoC4/StripLights.c ****     uint32 color;
 265:Generated_Source\PSoC4/StripLights.c ****     
 266:Generated_Source\PSoC4/StripLights.c ****     if(rst) 
  34              		.loc 1 266 0
  35 0000 0028     		cmp	r0, #0
  36 0002 04D0     		beq	.L2
 267:Generated_Source\PSoC4/StripLights.c ****     {
 268:Generated_Source\PSoC4/StripLights.c ****         StripLights_row = 0;  /* Reset the row */
  37              		.loc 1 268 0
  38 0004 0023     		movs	r3, #0
  39 0006 134A     		ldr	r2, .L3
  40 0008 1360     		str	r3, [r2]
 269:Generated_Source\PSoC4/StripLights.c ****         StripLights_Channel = 0;
  41              		.loc 1 269 0
  42 000a 134A     		ldr	r2, .L3+4
  43 000c 1370     		strb	r3, [r2]
  44              	.L2:
 270:Generated_Source\PSoC4/StripLights.c ****     }
 271:Generated_Source\PSoC4/StripLights.c ****     
 272:Generated_Source\PSoC4/StripLights.c ****     #if(StripLights_MEMORY_TYPE == StripLights_MEMORY_RGB)
 273:Generated_Source\PSoC4/StripLights.c ****        color = StripLights_ledArray[StripLights_row][0];
 274:Generated_Source\PSoC4/StripLights.c ****     #else  /* Else use lookup table */
 275:Generated_Source\PSoC4/StripLights.c ****        color = StripLights_CLUT[ (StripLights_ledArray[StripLights_row][0]) ];
  45              		.loc 1 275 0
  46 000e 1148     		ldr	r0, .L3
  47              	.LVL1:
  48 0010 0268     		ldr	r2, [r0]
  49 0012 1301     		lsls	r3, r2, #4
  50 0014 9B1A     		subs	r3, r3, r2
  51 0016 9A00     		lsls	r2, r3, #2
  52 0018 104B     		ldr	r3, .L3+8
  53 001a D35C     		ldrb	r3, [r2, r3]
  54 001c 9B00     		lsls	r3, r3, #2
  55 001e 104A     		ldr	r2, .L3+12
  56 0020 9B58     		ldr	r3, [r3, r2]
  57              	.LVL2:
 276:Generated_Source\PSoC4/StripLights.c ****     #endif
 277:Generated_Source\PSoC4/StripLights.c ****     
 278:Generated_Source\PSoC4/StripLights.c ****      color = (color >> StripLights_DimShift) & StripLights_DimMask;
  58              		.loc 1 278 0
  59 0022 104A     		ldr	r2, .L3+16
  60 0024 1268     		ldr	r2, [r2]
  61 0026 D340     		lsrs	r3, r3, r2
  62              	.LVL3:
  63 0028 0F4A     		ldr	r2, .L3+20
  64 002a 1268     		ldr	r2, [r2]
ARM GAS  C:\Users\ADMIN\AppData\Local\Temp\cckytse1.s 			page 7


  65 002c 1340     		ands	r3, r2
  66              	.LVL4:
 279:Generated_Source\PSoC4/StripLights.c ****      
 280:Generated_Source\PSoC4/StripLights.c ****     StripLights_DATA = (uint8)(color & 0x000000FF);  // Write Red
  67              		.loc 1 280 0
  68 002e D9B2     		uxtb	r1, r3
  69 0030 0E4A     		ldr	r2, .L3+24
  70 0032 1170     		strb	r1, [r2]
 281:Generated_Source\PSoC4/StripLights.c ****     color = color >> 8;
  71              		.loc 1 281 0
  72 0034 190A     		lsrs	r1, r3, #8
  73              	.LVL5:
 282:Generated_Source\PSoC4/StripLights.c ****     StripLights_DATA = (uint8)(color & 0x000000FF);  // Write green
  74              		.loc 1 282 0
  75 0036 C9B2     		uxtb	r1, r1
  76              	.LVL6:
  77 0038 1170     		strb	r1, [r2]
 283:Generated_Source\PSoC4/StripLights.c ****     color = color >> 8;
  78              		.loc 1 283 0
  79 003a 1B0C     		lsrs	r3, r3, #16
  80              	.LVL7:
 284:Generated_Source\PSoC4/StripLights.c ****     StripLights_DATA = (uint8)(color & 0x000000FF);  // Write green
  81              		.loc 1 284 0
  82 003c DBB2     		uxtb	r3, r3
  83              	.LVL8:
  84 003e 1370     		strb	r3, [r2]
 285:Generated_Source\PSoC4/StripLights.c ****     
 286:Generated_Source\PSoC4/StripLights.c ****     StripLights_ledIndex = 1;
  85              		.loc 1 286 0
  86 0040 0123     		movs	r3, #1
  87 0042 4360     		str	r3, [r0, #4]
 287:Generated_Source\PSoC4/StripLights.c ****  //   StripLights_CONTROL = StripLights_ENABLE | StripLights_FIFO_IRQ_EN; 
 288:Generated_Source\PSoC4/StripLights.c **** 	
 289:Generated_Source\PSoC4/StripLights.c **** 	StripLights_CONTROL = StripLights_ENABLE | StripLights_XFRCMPT_IRQ_EN | StripLights_FIFO_IRQ_EN; 
  88              		.loc 1 289 0
  89 0044 1922     		movs	r2, #25
  90 0046 0A4B     		ldr	r3, .L3+28
  91 0048 1A70     		strb	r2, [r3]
 290:Generated_Source\PSoC4/StripLights.c ****     StripLights_refreshComplete = 0;
  92              		.loc 1 290 0
  93 004a 0022     		movs	r2, #0
  94 004c 094B     		ldr	r3, .L3+32
  95 004e 1A60     		str	r2, [r3]
 291:Generated_Source\PSoC4/StripLights.c **** }
  96              		.loc 1 291 0
  97              		@ sp needed
  98 0050 7047     		bx	lr
  99              	.L4:
 100 0052 C046     		.align	2
 101              	.L3:
 102 0054 00000000 		.word	.LANCHOR0
 103 0058 00000000 		.word	StripLights_Channel
 104 005c 00000000 		.word	StripLights_ledArray
 105 0060 00000000 		.word	.LANCHOR1
 106 0064 00000000 		.word	StripLights_DimShift
 107 0068 00000000 		.word	StripLights_DimMask
 108 006c 40000F40 		.word	1074724928
ARM GAS  C:\Users\ADMIN\AppData\Local\Temp\cckytse1.s 			page 8


 109 0070 70000F40 		.word	1074724976
 110 0074 00000000 		.word	StripLights_refreshComplete
 111              		.cfi_endproc
 112              	.LFE33:
 113              		.size	StripLights_Trigger, .-StripLights_Trigger
 114              		.section	.text.StripLights_Ready,"ax",%progbits
 115              		.align	2
 116              		.global	StripLights_Ready
 117              		.code	16
 118              		.thumb_func
 119              		.type	StripLights_Ready, %function
 120              	StripLights_Ready:
 121              	.LFB34:
 292:Generated_Source\PSoC4/StripLights.c **** 
 293:Generated_Source\PSoC4/StripLights.c **** /*******************************************************************************
 294:Generated_Source\PSoC4/StripLights.c **** * Function Name: StripLights_Ready
 295:Generated_Source\PSoC4/StripLights.c **** ********************************************************************************
 296:Generated_Source\PSoC4/StripLights.c **** * Summary:
 297:Generated_Source\PSoC4/StripLights.c **** *  Checks to see if transfer is complete.
 298:Generated_Source\PSoC4/StripLights.c **** *
 299:Generated_Source\PSoC4/StripLights.c **** * Parameters:  
 300:Generated_Source\PSoC4/StripLights.c **** *  none  
 301:Generated_Source\PSoC4/StripLights.c **** *
 302:Generated_Source\PSoC4/StripLights.c **** * Return: 
 303:Generated_Source\PSoC4/StripLights.c **** *  Zero if not complete, non-zero if transfer complete.
 304:Generated_Source\PSoC4/StripLights.c **** *
 305:Generated_Source\PSoC4/StripLights.c **** *******************************************************************************/
 306:Generated_Source\PSoC4/StripLights.c **** uint32 StripLights_Ready(void)
 307:Generated_Source\PSoC4/StripLights.c **** {
 122              		.loc 1 307 0
 123              		.cfi_startproc
 124              		@ args = 0, pretend = 0, frame = 0
 125              		@ frame_needed = 0, uses_anonymous_args = 0
 126              		@ link register save eliminated.
 308:Generated_Source\PSoC4/StripLights.c ****     if(StripLights_refreshComplete )
 127              		.loc 1 308 0
 128 0000 044B     		ldr	r3, .L7
 129 0002 1868     		ldr	r0, [r3]
 130 0004 0028     		cmp	r0, #0
 131 0006 03D0     		beq	.L6
 309:Generated_Source\PSoC4/StripLights.c ****     {
 310:Generated_Source\PSoC4/StripLights.c ****         StripLights_CONTROL = StripLights_DISABLE;
 132              		.loc 1 310 0
 133 0008 0022     		movs	r2, #0
 134 000a 034B     		ldr	r3, .L7+4
 135 000c 1A70     		strb	r2, [r3]
 311:Generated_Source\PSoC4/StripLights.c ****         return((uint32)1);
 136              		.loc 1 311 0
 137 000e 0120     		movs	r0, #1
 138              	.L6:
 312:Generated_Source\PSoC4/StripLights.c ****     }
 313:Generated_Source\PSoC4/StripLights.c ****     else
 314:Generated_Source\PSoC4/StripLights.c ****     {
 315:Generated_Source\PSoC4/StripLights.c ****          return((uint32)0);
 316:Generated_Source\PSoC4/StripLights.c ****     }
 317:Generated_Source\PSoC4/StripLights.c **** }
 139              		.loc 1 317 0
ARM GAS  C:\Users\ADMIN\AppData\Local\Temp\cckytse1.s 			page 9


 140              		@ sp needed
 141 0010 7047     		bx	lr
 142              	.L8:
 143 0012 C046     		.align	2
 144              	.L7:
 145 0014 00000000 		.word	StripLights_refreshComplete
 146 0018 70000F40 		.word	1074724976
 147              		.cfi_endproc
 148              	.LFE34:
 149              		.size	StripLights_Ready, .-StripLights_Ready
 150              		.section	.text.StripLights_Stop,"ax",%progbits
 151              		.align	2
 152              		.global	StripLights_Stop
 153              		.code	16
 154              		.thumb_func
 155              		.type	StripLights_Stop, %function
 156              	StripLights_Stop:
 157              	.LFB35:
 318:Generated_Source\PSoC4/StripLights.c **** 
 319:Generated_Source\PSoC4/StripLights.c **** 
 320:Generated_Source\PSoC4/StripLights.c **** /*******************************************************************************
 321:Generated_Source\PSoC4/StripLights.c **** * Function Name: StripLights_Stop
 322:Generated_Source\PSoC4/StripLights.c **** ********************************************************************************
 323:Generated_Source\PSoC4/StripLights.c **** * Summary:
 324:Generated_Source\PSoC4/StripLights.c **** *  Stop all transfers.
 325:Generated_Source\PSoC4/StripLights.c **** *
 326:Generated_Source\PSoC4/StripLights.c **** * Parameters:  
 327:Generated_Source\PSoC4/StripLights.c **** *  None 
 328:Generated_Source\PSoC4/StripLights.c **** *
 329:Generated_Source\PSoC4/StripLights.c **** * Return: 
 330:Generated_Source\PSoC4/StripLights.c **** *  void
 331:Generated_Source\PSoC4/StripLights.c **** *
 332:Generated_Source\PSoC4/StripLights.c **** *******************************************************************************/
 333:Generated_Source\PSoC4/StripLights.c **** void StripLights_Stop()
 334:Generated_Source\PSoC4/StripLights.c **** {
 158              		.loc 1 334 0
 159              		.cfi_startproc
 160              		@ args = 0, pretend = 0, frame = 0
 161              		@ frame_needed = 0, uses_anonymous_args = 0
 162              		@ link register save eliminated.
 335:Generated_Source\PSoC4/StripLights.c **** 
 336:Generated_Source\PSoC4/StripLights.c ****     StripLights_CONTROL = StripLights_DISABLE;
 163              		.loc 1 336 0
 164 0000 0022     		movs	r2, #0
 165 0002 014B     		ldr	r3, .L10
 166 0004 1A70     		strb	r2, [r3]
 337:Generated_Source\PSoC4/StripLights.c **** }
 167              		.loc 1 337 0
 168              		@ sp needed
 169 0006 7047     		bx	lr
 170              	.L11:
 171              		.align	2
 172              	.L10:
 173 0008 70000F40 		.word	1074724976
 174              		.cfi_endproc
 175              	.LFE35:
 176              		.size	StripLights_Stop, .-StripLights_Stop
ARM GAS  C:\Users\ADMIN\AppData\Local\Temp\cckytse1.s 			page 10


 177              		.global	__aeabi_uidivmod
 178              		.section	.text.StripLights_ColorInc,"ax",%progbits
 179              		.align	2
 180              		.global	StripLights_ColorInc
 181              		.code	16
 182              		.thumb_func
 183              		.type	StripLights_ColorInc, %function
 184              	StripLights_ColorInc:
 185              	.LFB36:
 338:Generated_Source\PSoC4/StripLights.c **** 
 339:Generated_Source\PSoC4/StripLights.c **** 
 340:Generated_Source\PSoC4/StripLights.c **** /*******************************************************************************
 341:Generated_Source\PSoC4/StripLights.c **** * Function Name: StripLights_ColorInc
 342:Generated_Source\PSoC4/StripLights.c **** ********************************************************************************
 343:Generated_Source\PSoC4/StripLights.c **** * Summary:
 344:Generated_Source\PSoC4/StripLights.c **** *  Increment color throught the color lookup table.
 345:Generated_Source\PSoC4/StripLights.c **** *
 346:Generated_Source\PSoC4/StripLights.c **** * Parameters:  
 347:Generated_Source\PSoC4/StripLights.c **** *  uint32 incValue: Increment through color table by incValue. 
 348:Generated_Source\PSoC4/StripLights.c **** *
 349:Generated_Source\PSoC4/StripLights.c **** * Return: Color at next location.
 350:Generated_Source\PSoC4/StripLights.c **** *  
 351:Generated_Source\PSoC4/StripLights.c **** *
 352:Generated_Source\PSoC4/StripLights.c **** *******************************************************************************/
 353:Generated_Source\PSoC4/StripLights.c **** uint32 StripLights_ColorInc(uint32 incValue)
 354:Generated_Source\PSoC4/StripLights.c **** {
 186              		.loc 1 354 0
 187              		.cfi_startproc
 188              		@ args = 0, pretend = 0, frame = 0
 189              		@ frame_needed = 0, uses_anonymous_args = 0
 190              	.LVL9:
 191 0000 10B5     		push	{r4, lr}
 192              		.cfi_def_cfa_offset 8
 193              		.cfi_offset 4, -8
 194              		.cfi_offset 14, -4
 355:Generated_Source\PSoC4/StripLights.c ****     uint32 color;
 356:Generated_Source\PSoC4/StripLights.c ****     extern const uint32 StripLights_CLUT[];
 357:Generated_Source\PSoC4/StripLights.c ****     static uint32 colorIndex = 0;
 358:Generated_Source\PSoC4/StripLights.c ****     
 359:Generated_Source\PSoC4/StripLights.c ****     colorIndex += incValue;
 195              		.loc 1 359 0
 196 0002 054C     		ldr	r4, .L13
 197 0004 A368     		ldr	r3, [r4, #8]
 198 0006 9C46     		mov	ip, r3
 199 0008 6044     		add	r0, r0, ip
 200              	.LVL10:
 360:Generated_Source\PSoC4/StripLights.c ****     colorIndex = colorIndex % StripLights_COLOR_WHEEL_SIZE;
 201              		.loc 1 360 0
 202 000a 1821     		movs	r1, #24
 203 000c FFF7FEFF 		bl	__aeabi_uidivmod
 204              	.LVL11:
 205 0010 A160     		str	r1, [r4, #8]
 206              	.LVL12:
 361:Generated_Source\PSoC4/StripLights.c **** 
 362:Generated_Source\PSoC4/StripLights.c ****     #if(StripLights_MEMORY_TYPE == StripLights_MEMORY_RGB)
 363:Generated_Source\PSoC4/StripLights.c ****        color = StripLights_CLUT[ colorIndex ];
 364:Generated_Source\PSoC4/StripLights.c ****     #else
ARM GAS  C:\Users\ADMIN\AppData\Local\Temp\cckytse1.s 			page 11


 365:Generated_Source\PSoC4/StripLights.c ****         color = colorIndex;
 366:Generated_Source\PSoC4/StripLights.c ****     #endif
 367:Generated_Source\PSoC4/StripLights.c **** 
 368:Generated_Source\PSoC4/StripLights.c **** 
 369:Generated_Source\PSoC4/StripLights.c ****     return(color);
 370:Generated_Source\PSoC4/StripLights.c **** }
 207              		.loc 1 370 0
 208 0012 0800     		movs	r0, r1
 209              		@ sp needed
 210 0014 10BD     		pop	{r4, pc}
 211              	.L14:
 212 0016 C046     		.align	2
 213              	.L13:
 214 0018 00000000 		.word	.LANCHOR0
 215              		.cfi_endproc
 216              	.LFE36:
 217              		.size	StripLights_ColorInc, .-StripLights_ColorInc
 218              		.section	.text.StripLights_FISR,"ax",%progbits
 219              		.align	2
 220              		.global	StripLights_FISR
 221              		.code	16
 222              		.thumb_func
 223              		.type	StripLights_FISR, %function
 224              	StripLights_FISR:
 225              	.LFB37:
 371:Generated_Source\PSoC4/StripLights.c **** /*****************************************************************************
 372:Generated_Source\PSoC4/StripLights.c **** * Function Name: StripLights_FISR
 373:Generated_Source\PSoC4/StripLights.c **** ******************************************************************************
 374:Generated_Source\PSoC4/StripLights.c **** *
 375:Generated_Source\PSoC4/StripLights.c **** * Summary:
 376:Generated_Source\PSoC4/StripLights.c **** *  Interrupt service handler for data transfer for each LED 
 377:Generated_Source\PSoC4/StripLights.c **** *
 378:Generated_Source\PSoC4/StripLights.c **** * Parameters:  
 379:Generated_Source\PSoC4/StripLights.c **** *  void
 380:Generated_Source\PSoC4/StripLights.c **** *
 381:Generated_Source\PSoC4/StripLights.c **** * Return: 
 382:Generated_Source\PSoC4/StripLights.c **** *  void 
 383:Generated_Source\PSoC4/StripLights.c **** *
 384:Generated_Source\PSoC4/StripLights.c **** * Reentrant: 
 385:Generated_Source\PSoC4/StripLights.c **** *  No
 386:Generated_Source\PSoC4/StripLights.c **** *
 387:Generated_Source\PSoC4/StripLights.c **** *****************************************************************************/
 388:Generated_Source\PSoC4/StripLights.c **** CY_ISR( StripLights_FISR)
 389:Generated_Source\PSoC4/StripLights.c **** {
 226              		.loc 1 389 0
 227              		.cfi_startproc
 228              		@ args = 0, pretend = 0, frame = 0
 229              		@ frame_needed = 0, uses_anonymous_args = 0
 230              		@ link register save eliminated.
 390:Generated_Source\PSoC4/StripLights.c ****     extern uint32  StripLights_DimMask;
 391:Generated_Source\PSoC4/StripLights.c ****     extern uint32  StripLights_DimShift;
 392:Generated_Source\PSoC4/StripLights.c ****     uint32 static color;
 393:Generated_Source\PSoC4/StripLights.c **** 
 394:Generated_Source\PSoC4/StripLights.c ****     if(StripLights_ledIndex < StripLights_ARRAY_COLS)
 231              		.loc 1 394 0
 232 0000 124B     		ldr	r3, .L18
 233 0002 5A68     		ldr	r2, [r3, #4]
ARM GAS  C:\Users\ADMIN\AppData\Local\Temp\cckytse1.s 			page 12


 234 0004 3B2A     		cmp	r2, #59
 235 0006 1DD8     		bhi	.L16
 395:Generated_Source\PSoC4/StripLights.c ****     {
 396:Generated_Source\PSoC4/StripLights.c ****         #if(StripLights_MEMORY_TYPE == StripLights_MEMORY_RGB)
 397:Generated_Source\PSoC4/StripLights.c ****             color = StripLights_ledArray[StripLights_row][StripLights_ledIndex++];
 398:Generated_Source\PSoC4/StripLights.c ****         #else  /* Else use lookup table */
 399:Generated_Source\PSoC4/StripLights.c ****             color = StripLights_CLUT[ (StripLights_ledArray[StripLights_row][StripLights_ledIndex++
 236              		.loc 1 399 0
 237 0008 1900     		movs	r1, r3
 238 000a 1868     		ldr	r0, [r3]
 239 000c 531C     		adds	r3, r2, #1
 240 000e 4B60     		str	r3, [r1, #4]
 241 0010 0301     		lsls	r3, r0, #4
 242 0012 1B1A     		subs	r3, r3, r0
 243 0014 9B00     		lsls	r3, r3, #2
 244 0016 0E48     		ldr	r0, .L18+4
 245 0018 C318     		adds	r3, r0, r3
 246 001a 9B5C     		ldrb	r3, [r3, r2]
 247 001c 9B00     		lsls	r3, r3, #2
 248 001e 0D4A     		ldr	r2, .L18+8
 249 0020 9B58     		ldr	r3, [r3, r2]
 400:Generated_Source\PSoC4/StripLights.c ****         #endif
 401:Generated_Source\PSoC4/StripLights.c **** 
 402:Generated_Source\PSoC4/StripLights.c ****         color = (color >> StripLights_DimShift) & StripLights_DimMask;  
 250              		.loc 1 402 0
 251 0022 0D4A     		ldr	r2, .L18+12
 252 0024 1268     		ldr	r2, [r2]
 253 0026 D340     		lsrs	r3, r3, r2
 254 0028 0C4A     		ldr	r2, .L18+16
 255 002a 1268     		ldr	r2, [r2]
 256 002c 1340     		ands	r3, r2
 403:Generated_Source\PSoC4/StripLights.c **** 
 404:Generated_Source\PSoC4/StripLights.c ****         StripLights_DATA = (uint8)(color & 0x000000FF);  // Write Green
 257              		.loc 1 404 0
 258 002e D8B2     		uxtb	r0, r3
 259 0030 0B4A     		ldr	r2, .L18+20
 260 0032 1070     		strb	r0, [r2]
 405:Generated_Source\PSoC4/StripLights.c ****         color = color >> 8;
 261              		.loc 1 405 0
 262 0034 180A     		lsrs	r0, r3, #8
 406:Generated_Source\PSoC4/StripLights.c ****         StripLights_DATA = (uint8)(color & 0x000000FF);  // Write Red
 263              		.loc 1 406 0
 264 0036 C0B2     		uxtb	r0, r0
 265 0038 1070     		strb	r0, [r2]
 407:Generated_Source\PSoC4/StripLights.c ****         color = color >> 8;
 266              		.loc 1 407 0
 267 003a 1B0C     		lsrs	r3, r3, #16
 268 003c CB60     		str	r3, [r1, #12]
 408:Generated_Source\PSoC4/StripLights.c ****         StripLights_DATA = (uint8)(color & 0x000000FF);  // Write Blue
 269              		.loc 1 408 0
 270 003e DBB2     		uxtb	r3, r3
 271 0040 1370     		strb	r3, [r2]
 272 0042 02E0     		b	.L15
 273              	.L16:
 409:Generated_Source\PSoC4/StripLights.c ****     }
 410:Generated_Source\PSoC4/StripLights.c ****     else 
 411:Generated_Source\PSoC4/StripLights.c ****     {
ARM GAS  C:\Users\ADMIN\AppData\Local\Temp\cckytse1.s 			page 13


 412:Generated_Source\PSoC4/StripLights.c ****          StripLights_CONTROL = StripLights_ENABLE | StripLights_XFRCMPT_IRQ_EN; 
 274              		.loc 1 412 0
 275 0044 1122     		movs	r2, #17
 276 0046 074B     		ldr	r3, .L18+24
 277 0048 1A70     		strb	r2, [r3]
 278              	.L15:
 413:Generated_Source\PSoC4/StripLights.c ****     }
 414:Generated_Source\PSoC4/StripLights.c **** 
 415:Generated_Source\PSoC4/StripLights.c **** }
 279              		.loc 1 415 0
 280              		@ sp needed
 281 004a 7047     		bx	lr
 282              	.L19:
 283              		.align	2
 284              	.L18:
 285 004c 00000000 		.word	.LANCHOR0
 286 0050 00000000 		.word	StripLights_ledArray
 287 0054 00000000 		.word	.LANCHOR1
 288 0058 00000000 		.word	StripLights_DimShift
 289 005c 00000000 		.word	StripLights_DimMask
 290 0060 40000F40 		.word	1074724928
 291 0064 70000F40 		.word	1074724976
 292              		.cfi_endproc
 293              	.LFE37:
 294              		.size	StripLights_FISR, .-StripLights_FISR
 295              		.section	.text.StripLights_CISR,"ax",%progbits
 296              		.align	2
 297              		.global	StripLights_CISR
 298              		.code	16
 299              		.thumb_func
 300              		.type	StripLights_CISR, %function
 301              	StripLights_CISR:
 302              	.LFB38:
 416:Generated_Source\PSoC4/StripLights.c **** 
 417:Generated_Source\PSoC4/StripLights.c **** /*****************************************************************************
 418:Generated_Source\PSoC4/StripLights.c **** * Function Name: StripLights_CISR
 419:Generated_Source\PSoC4/StripLights.c **** ******************************************************************************
 420:Generated_Source\PSoC4/StripLights.c **** *
 421:Generated_Source\PSoC4/StripLights.c **** * Summary:
 422:Generated_Source\PSoC4/StripLights.c **** *  Interrupt service handler after each row is complete.
 423:Generated_Source\PSoC4/StripLights.c **** *
 424:Generated_Source\PSoC4/StripLights.c **** * Parameters:  
 425:Generated_Source\PSoC4/StripLights.c **** *  void
 426:Generated_Source\PSoC4/StripLights.c **** *
 427:Generated_Source\PSoC4/StripLights.c **** * Return: 
 428:Generated_Source\PSoC4/StripLights.c **** *  void 
 429:Generated_Source\PSoC4/StripLights.c **** *
 430:Generated_Source\PSoC4/StripLights.c **** * Reentrant: 
 431:Generated_Source\PSoC4/StripLights.c **** *  No
 432:Generated_Source\PSoC4/StripLights.c **** *
 433:Generated_Source\PSoC4/StripLights.c **** *****************************************************************************/
 434:Generated_Source\PSoC4/StripLights.c **** CY_ISR( StripLights_CISR)
 435:Generated_Source\PSoC4/StripLights.c **** {
 303              		.loc 1 435 0
 304              		.cfi_startproc
 305              		@ args = 0, pretend = 0, frame = 0
 306              		@ frame_needed = 0, uses_anonymous_args = 0
ARM GAS  C:\Users\ADMIN\AppData\Local\Temp\cckytse1.s 			page 14


 307              		@ link register save eliminated.
 436:Generated_Source\PSoC4/StripLights.c ****     extern uint32  StripLights_DimMask;
 437:Generated_Source\PSoC4/StripLights.c ****     extern uint32  StripLights_DimShift;
 438:Generated_Source\PSoC4/StripLights.c ****     uint32 static color;
 439:Generated_Source\PSoC4/StripLights.c ****     extern uint32 StripLights_refreshComplete;
 440:Generated_Source\PSoC4/StripLights.c **** 
 441:Generated_Source\PSoC4/StripLights.c **** 	StripLights_CONTROL = StripLights_ENABLE |StripLights_NEXT_ROW;
 308              		.loc 1 441 0
 309 0000 2122     		movs	r2, #33
 310 0002 164B     		ldr	r3, .L23
 311 0004 1A70     		strb	r2, [r3]
 442:Generated_Source\PSoC4/StripLights.c ****     StripLights_row++;
 312              		.loc 1 442 0
 313 0006 164A     		ldr	r2, .L23+4
 314 0008 1368     		ldr	r3, [r2]
 315 000a 0133     		adds	r3, r3, #1
 316 000c 1360     		str	r3, [r2]
 443:Generated_Source\PSoC4/StripLights.c ****     if( StripLights_row < StripLights_ARRAY_ROWS)  /* More Rows to do  */
 317              		.loc 1 443 0
 318 000e 002B     		cmp	r3, #0
 319 0010 20D1     		bne	.L21
 444:Generated_Source\PSoC4/StripLights.c ****     {
 445:Generated_Source\PSoC4/StripLights.c ****         StripLights_Channel = StripLights_row;  
 320              		.loc 1 445 0
 321 0012 144A     		ldr	r2, .L23+8
 322 0014 1370     		strb	r3, [r2]
 446:Generated_Source\PSoC4/StripLights.c **** 
 447:Generated_Source\PSoC4/StripLights.c **** 		#if(StripLights_MEMORY_TYPE == StripLights_MEMORY_RGB)
 448:Generated_Source\PSoC4/StripLights.c ****              color = StripLights_ledArray[StripLights_row][0];
 449:Generated_Source\PSoC4/StripLights.c ****         #else  /* Else use lookup table */
 450:Generated_Source\PSoC4/StripLights.c ****              color = StripLights_CLUT[ (StripLights_ledArray[StripLights_row][0]) ];
 323              		.loc 1 450 0
 324 0016 1A01     		lsls	r2, r3, #4
 325 0018 D31A     		subs	r3, r2, r3
 326 001a 9B00     		lsls	r3, r3, #2
 327 001c 124A     		ldr	r2, .L23+12
 328 001e 9B5C     		ldrb	r3, [r3, r2]
 329 0020 9B00     		lsls	r3, r3, #2
 330 0022 124A     		ldr	r2, .L23+16
 331 0024 9B58     		ldr	r3, [r3, r2]
 332 0026 0E48     		ldr	r0, .L23+4
 451:Generated_Source\PSoC4/StripLights.c ****         #endif
 452:Generated_Source\PSoC4/StripLights.c **** 
 453:Generated_Source\PSoC4/StripLights.c ****         color = (color >> StripLights_DimShift) & StripLights_DimMask;
 333              		.loc 1 453 0
 334 0028 114A     		ldr	r2, .L23+20
 335 002a 1268     		ldr	r2, [r2]
 336 002c D340     		lsrs	r3, r3, r2
 337 002e 114A     		ldr	r2, .L23+24
 338 0030 1268     		ldr	r2, [r2]
 339 0032 1340     		ands	r3, r2
 454:Generated_Source\PSoC4/StripLights.c ****  
 455:Generated_Source\PSoC4/StripLights.c ****         StripLights_DATA = (uint8)(color & 0x000000FF);  /* Write Red   */
 340              		.loc 1 455 0
 341 0034 D9B2     		uxtb	r1, r3
 342 0036 104A     		ldr	r2, .L23+28
 343 0038 1170     		strb	r1, [r2]
ARM GAS  C:\Users\ADMIN\AppData\Local\Temp\cckytse1.s 			page 15


 456:Generated_Source\PSoC4/StripLights.c ****         color = color >> 8;
 344              		.loc 1 456 0
 345 003a 190A     		lsrs	r1, r3, #8
 457:Generated_Source\PSoC4/StripLights.c ****         StripLights_DATA = (uint8)(color & 0x000000FF);  /* Write green */
 346              		.loc 1 457 0
 347 003c C9B2     		uxtb	r1, r1
 348 003e 1170     		strb	r1, [r2]
 458:Generated_Source\PSoC4/StripLights.c ****         color = color >> 8;
 349              		.loc 1 458 0
 350 0040 1B0C     		lsrs	r3, r3, #16
 351 0042 0361     		str	r3, [r0, #16]
 459:Generated_Source\PSoC4/StripLights.c ****         StripLights_DATA = (uint8)(color & 0x000000FF);  /* Write green */
 352              		.loc 1 459 0
 353 0044 DBB2     		uxtb	r3, r3
 354 0046 1370     		strb	r3, [r2]
 460:Generated_Source\PSoC4/StripLights.c **** 
 461:Generated_Source\PSoC4/StripLights.c ****         StripLights_ledIndex = 1;
 355              		.loc 1 461 0
 356 0048 0123     		movs	r3, #1
 357 004a 4360     		str	r3, [r0, #4]
 462:Generated_Source\PSoC4/StripLights.c **** 		StripLights_CONTROL = StripLights_ENABLE | StripLights_FIFO_IRQ_EN; 
 358              		.loc 1 462 0
 359 004c 0922     		movs	r2, #9
 360 004e 034B     		ldr	r3, .L23
 361 0050 1A70     		strb	r2, [r3]
 362 0052 02E0     		b	.L20
 363              	.L21:
 463:Generated_Source\PSoC4/StripLights.c **** 		
 464:Generated_Source\PSoC4/StripLights.c ****     }
 465:Generated_Source\PSoC4/StripLights.c ****     else
 466:Generated_Source\PSoC4/StripLights.c ****     {
 467:Generated_Source\PSoC4/StripLights.c ****         StripLights_refreshComplete = 1u;
 364              		.loc 1 467 0
 365 0054 0122     		movs	r2, #1
 366 0056 094B     		ldr	r3, .L23+32
 367 0058 1A60     		str	r2, [r3]
 368              	.L20:
 468:Generated_Source\PSoC4/StripLights.c ****     }
 469:Generated_Source\PSoC4/StripLights.c ****   
 470:Generated_Source\PSoC4/StripLights.c **** }
 369              		.loc 1 470 0
 370              		@ sp needed
 371 005a 7047     		bx	lr
 372              	.L24:
 373              		.align	2
 374              	.L23:
 375 005c 70000F40 		.word	1074724976
 376 0060 00000000 		.word	.LANCHOR0
 377 0064 00000000 		.word	StripLights_Channel
 378 0068 00000000 		.word	StripLights_ledArray
 379 006c 00000000 		.word	.LANCHOR1
 380 0070 00000000 		.word	StripLights_DimShift
 381 0074 00000000 		.word	StripLights_DimMask
 382 0078 40000F40 		.word	1074724928
 383 007c 00000000 		.word	StripLights_refreshComplete
 384              		.cfi_endproc
 385              	.LFE38:
ARM GAS  C:\Users\ADMIN\AppData\Local\Temp\cckytse1.s 			page 16


 386              		.size	StripLights_CISR, .-StripLights_CISR
 387              		.section	.text.StripLights_MemClear,"ax",%progbits
 388              		.align	2
 389              		.global	StripLights_MemClear
 390              		.code	16
 391              		.thumb_func
 392              		.type	StripLights_MemClear, %function
 393              	StripLights_MemClear:
 394              	.LFB40:
 471:Generated_Source\PSoC4/StripLights.c **** 
 472:Generated_Source\PSoC4/StripLights.c **** 
 473:Generated_Source\PSoC4/StripLights.c **** /*******************************************************************************
 474:Generated_Source\PSoC4/StripLights.c **** * Function Name: StripLights_DisplayClear
 475:Generated_Source\PSoC4/StripLights.c **** ********************************************************************************
 476:Generated_Source\PSoC4/StripLights.c **** * Summary:
 477:Generated_Source\PSoC4/StripLights.c **** *   Clear memory with a given value and update the display.
 478:Generated_Source\PSoC4/StripLights.c **** *
 479:Generated_Source\PSoC4/StripLights.c **** * Parameters:  
 480:Generated_Source\PSoC4/StripLights.c **** *  uint32 color: Color to clear display. 
 481:Generated_Source\PSoC4/StripLights.c **** *
 482:Generated_Source\PSoC4/StripLights.c **** * Return: 
 483:Generated_Source\PSoC4/StripLights.c **** *  void
 484:Generated_Source\PSoC4/StripLights.c **** *
 485:Generated_Source\PSoC4/StripLights.c **** *******************************************************************************/
 486:Generated_Source\PSoC4/StripLights.c **** void StripLights_DisplayClear(uint32 color)
 487:Generated_Source\PSoC4/StripLights.c **** {   
 488:Generated_Source\PSoC4/StripLights.c ****     StripLights_MemClear(color);
 489:Generated_Source\PSoC4/StripLights.c ****     StripLights_Trigger(1);
 490:Generated_Source\PSoC4/StripLights.c **** }
 491:Generated_Source\PSoC4/StripLights.c **** 
 492:Generated_Source\PSoC4/StripLights.c **** /*******************************************************************************
 493:Generated_Source\PSoC4/StripLights.c **** * Function Name: StripLights_MemClear
 494:Generated_Source\PSoC4/StripLights.c **** ********************************************************************************
 495:Generated_Source\PSoC4/StripLights.c **** * Summary:
 496:Generated_Source\PSoC4/StripLights.c **** *   Clear LED memory with given color, but do not update display.
 497:Generated_Source\PSoC4/StripLights.c **** *
 498:Generated_Source\PSoC4/StripLights.c **** * Parameters:  
 499:Generated_Source\PSoC4/StripLights.c **** *  uint32 color: Color to clear display.  
 500:Generated_Source\PSoC4/StripLights.c **** *
 501:Generated_Source\PSoC4/StripLights.c **** * Return: 
 502:Generated_Source\PSoC4/StripLights.c **** *  void
 503:Generated_Source\PSoC4/StripLights.c **** *
 504:Generated_Source\PSoC4/StripLights.c **** *******************************************************************************/
 505:Generated_Source\PSoC4/StripLights.c **** void StripLights_MemClear(uint32 color)
 506:Generated_Source\PSoC4/StripLights.c **** {
 395              		.loc 1 506 0
 396              		.cfi_startproc
 397              		@ args = 0, pretend = 0, frame = 0
 398              		@ frame_needed = 0, uses_anonymous_args = 0
 399              	.LVL13:
 400 0000 10B5     		push	{r4, lr}
 401              		.cfi_def_cfa_offset 8
 402              		.cfi_offset 4, -8
 403              		.cfi_offset 14, -4
 404              	.LVL14:
 507:Generated_Source\PSoC4/StripLights.c ****     uint32  row, col;
 508:Generated_Source\PSoC4/StripLights.c ****     
ARM GAS  C:\Users\ADMIN\AppData\Local\Temp\cckytse1.s 			page 17


 509:Generated_Source\PSoC4/StripLights.c ****     for(row=0; row < StripLights_ARRAY_ROWS; row++)
 405              		.loc 1 509 0
 406 0002 0024     		movs	r4, #0
 407 0004 0BE0     		b	.L26
 408              	.LVL15:
 409              	.L27:
 510:Generated_Source\PSoC4/StripLights.c ****     {
 511:Generated_Source\PSoC4/StripLights.c ****         for(col=0; col < StripLights_ARRAY_COLS; col++)
 512:Generated_Source\PSoC4/StripLights.c ****         {
 513:Generated_Source\PSoC4/StripLights.c ****             StripLights_ledArray[row][col] = color;
 410              		.loc 1 513 0 discriminator 3
 411 0006 2201     		lsls	r2, r4, #4
 412 0008 121B     		subs	r2, r2, r4
 413 000a 9300     		lsls	r3, r2, #2
 414 000c 054A     		ldr	r2, .L30
 415 000e D318     		adds	r3, r2, r3
 416 0010 5854     		strb	r0, [r3, r1]
 511:Generated_Source\PSoC4/StripLights.c ****         {
 417              		.loc 1 511 0 discriminator 3
 418 0012 0131     		adds	r1, r1, #1
 419              	.LVL16:
 420 0014 00E0     		b	.L28
 421              	.LVL17:
 422              	.L29:
 423 0016 0021     		movs	r1, #0
 424              	.L28:
 425              	.LVL18:
 511:Generated_Source\PSoC4/StripLights.c ****         {
 426              		.loc 1 511 0 is_stmt 0 discriminator 1
 427 0018 3B29     		cmp	r1, #59
 428 001a F4D9     		bls	.L27
 509:Generated_Source\PSoC4/StripLights.c ****     {
 429              		.loc 1 509 0 is_stmt 1 discriminator 2
 430 001c 0134     		adds	r4, r4, #1
 431              	.LVL19:
 432              	.L26:
 509:Generated_Source\PSoC4/StripLights.c ****     {
 433              		.loc 1 509 0 is_stmt 0 discriminator 1
 434 001e 002C     		cmp	r4, #0
 435 0020 F9D0     		beq	.L29
 514:Generated_Source\PSoC4/StripLights.c ****             #if(StripLights_MEMORY_TYPE == StripLights_MEMORY_RGB)
 515:Generated_Source\PSoC4/StripLights.c ****                 StripLights_ledArray[row][col] = color;
 516:Generated_Source\PSoC4/StripLights.c ****             #else  /* Else use lookup table */
 517:Generated_Source\PSoC4/StripLights.c ****                  StripLights_ledArray[row][col] = (uint8)color;
 518:Generated_Source\PSoC4/StripLights.c ****             #endif
 519:Generated_Source\PSoC4/StripLights.c ****         }
 520:Generated_Source\PSoC4/StripLights.c ****     }
 521:Generated_Source\PSoC4/StripLights.c **** }
 436              		.loc 1 521 0 is_stmt 1
 437              		@ sp needed
 438              	.LVL20:
 439 0022 10BD     		pop	{r4, pc}
 440              	.L31:
 441              		.align	2
 442              	.L30:
 443 0024 00000000 		.word	StripLights_ledArray
 444              		.cfi_endproc
ARM GAS  C:\Users\ADMIN\AppData\Local\Temp\cckytse1.s 			page 18


 445              	.LFE40:
 446              		.size	StripLights_MemClear, .-StripLights_MemClear
 447              		.section	.text.StripLights_DisplayClear,"ax",%progbits
 448              		.align	2
 449              		.global	StripLights_DisplayClear
 450              		.code	16
 451              		.thumb_func
 452              		.type	StripLights_DisplayClear, %function
 453              	StripLights_DisplayClear:
 454              	.LFB39:
 487:Generated_Source\PSoC4/StripLights.c ****     StripLights_MemClear(color);
 455              		.loc 1 487 0
 456              		.cfi_startproc
 457              		@ args = 0, pretend = 0, frame = 0
 458              		@ frame_needed = 0, uses_anonymous_args = 0
 459              	.LVL21:
 460 0000 10B5     		push	{r4, lr}
 461              		.cfi_def_cfa_offset 8
 462              		.cfi_offset 4, -8
 463              		.cfi_offset 14, -4
 488:Generated_Source\PSoC4/StripLights.c ****     StripLights_Trigger(1);
 464              		.loc 1 488 0
 465 0002 FFF7FEFF 		bl	StripLights_MemClear
 466              	.LVL22:
 489:Generated_Source\PSoC4/StripLights.c **** }
 467              		.loc 1 489 0
 468 0006 0120     		movs	r0, #1
 469 0008 FFF7FEFF 		bl	StripLights_Trigger
 470              	.LVL23:
 490:Generated_Source\PSoC4/StripLights.c **** 
 471              		.loc 1 490 0
 472              		@ sp needed
 473 000c 10BD     		pop	{r4, pc}
 474              		.cfi_endproc
 475              	.LFE39:
 476              		.size	StripLights_DisplayClear, .-StripLights_DisplayClear
 477 000e C046     		.section	.text.StripLights_WriteColor,"ax",%progbits
 478              		.align	2
 479              		.global	StripLights_WriteColor
 480              		.code	16
 481              		.thumb_func
 482              		.type	StripLights_WriteColor, %function
 483              	StripLights_WriteColor:
 484              	.LFB41:
 522:Generated_Source\PSoC4/StripLights.c **** 
 523:Generated_Source\PSoC4/StripLights.c **** 
 524:Generated_Source\PSoC4/StripLights.c **** 
 525:Generated_Source\PSoC4/StripLights.c **** /*******************************************************************************
 526:Generated_Source\PSoC4/StripLights.c **** * Function Name: StripLights_WriteColor
 527:Generated_Source\PSoC4/StripLights.c **** ********************************************************************************
 528:Generated_Source\PSoC4/StripLights.c **** * Summary:
 529:Generated_Source\PSoC4/StripLights.c **** *   Write given color directly to output register.
 530:Generated_Source\PSoC4/StripLights.c **** *
 531:Generated_Source\PSoC4/StripLights.c **** * Parameters:  
 532:Generated_Source\PSoC4/StripLights.c **** *  uint32 color: Color to write to display. 
 533:Generated_Source\PSoC4/StripLights.c **** *
 534:Generated_Source\PSoC4/StripLights.c **** * Return: 
ARM GAS  C:\Users\ADMIN\AppData\Local\Temp\cckytse1.s 			page 19


 535:Generated_Source\PSoC4/StripLights.c **** *  void
 536:Generated_Source\PSoC4/StripLights.c **** *
 537:Generated_Source\PSoC4/StripLights.c **** *******************************************************************************/
 538:Generated_Source\PSoC4/StripLights.c **** void StripLights_WriteColor(uint32 color)
 539:Generated_Source\PSoC4/StripLights.c **** {
 485              		.loc 1 539 0
 486              		.cfi_startproc
 487              		@ args = 0, pretend = 0, frame = 0
 488              		@ frame_needed = 0, uses_anonymous_args = 0
 489              		@ link register save eliminated.
 490              	.LVL24:
 491              	.L34:
 540:Generated_Source\PSoC4/StripLights.c ****     while( (StripLights_STATUS & StripLights_FIFO_EMPTY) == 0); 
 492              		.loc 1 540 0 discriminator 1
 493 0000 064B     		ldr	r3, .L35
 494 0002 1B78     		ldrb	r3, [r3]
 495 0004 DB07     		lsls	r3, r3, #31
 496 0006 FBD5     		bpl	.L34
 541:Generated_Source\PSoC4/StripLights.c **** 
 542:Generated_Source\PSoC4/StripLights.c ****     StripLights_DATA = (uint8)(color & 0x000000FF);  // Write Green
 497              		.loc 1 542 0
 498 0008 C2B2     		uxtb	r2, r0
 499 000a 054B     		ldr	r3, .L35+4
 500 000c 1A70     		strb	r2, [r3]
 543:Generated_Source\PSoC4/StripLights.c ****     color = color >> 8;
 501              		.loc 1 543 0
 502 000e 020A     		lsrs	r2, r0, #8
 503              	.LVL25:
 544:Generated_Source\PSoC4/StripLights.c ****     StripLights_DATA = (uint8)(color & 0x000000FF);  // Write Red
 504              		.loc 1 544 0
 505 0010 D2B2     		uxtb	r2, r2
 506              	.LVL26:
 507 0012 1A70     		strb	r2, [r3]
 545:Generated_Source\PSoC4/StripLights.c ****     color = color >> 8;
 508              		.loc 1 545 0
 509 0014 000C     		lsrs	r0, r0, #16
 510              	.LVL27:
 546:Generated_Source\PSoC4/StripLights.c ****     StripLights_DATA = (uint8)(color & 0x000000FF);  // Write Blue
 511              		.loc 1 546 0
 512 0016 C0B2     		uxtb	r0, r0
 513              	.LVL28:
 514 0018 1870     		strb	r0, [r3]
 547:Generated_Source\PSoC4/StripLights.c **** }
 515              		.loc 1 547 0
 516              		@ sp needed
 517 001a 7047     		bx	lr
 518              	.L36:
 519              		.align	2
 520              	.L35:
 521 001c 63000F40 		.word	1074724963
 522 0020 40000F40 		.word	1074724928
 523              		.cfi_endproc
 524              	.LFE41:
 525              		.size	StripLights_WriteColor, .-StripLights_WriteColor
 526              		.section	.text.StripLights_Pixel,"ax",%progbits
 527              		.align	2
 528              		.global	StripLights_Pixel
ARM GAS  C:\Users\ADMIN\AppData\Local\Temp\cckytse1.s 			page 20


 529              		.code	16
 530              		.thumb_func
 531              		.type	StripLights_Pixel, %function
 532              	StripLights_Pixel:
 533              	.LFB42:
 548:Generated_Source\PSoC4/StripLights.c **** 
 549:Generated_Source\PSoC4/StripLights.c **** 
 550:Generated_Source\PSoC4/StripLights.c **** /*******************************************************************************
 551:Generated_Source\PSoC4/StripLights.c **** * Function Name: StripLights_Pixel
 552:Generated_Source\PSoC4/StripLights.c **** ********************************************************************************
 553:Generated_Source\PSoC4/StripLights.c **** *
 554:Generated_Source\PSoC4/StripLights.c **** * Summary:
 555:Generated_Source\PSoC4/StripLights.c **** *  Draw Pixel  
 556:Generated_Source\PSoC4/StripLights.c **** *
 557:Generated_Source\PSoC4/StripLights.c **** * Parameters:  
 558:Generated_Source\PSoC4/StripLights.c **** *  x,y:    Location to draw the pixel
 559:Generated_Source\PSoC4/StripLights.c **** *  color:  Color of the pixel
 560:Generated_Source\PSoC4/StripLights.c **** *
 561:Generated_Source\PSoC4/StripLights.c **** * Return: 
 562:Generated_Source\PSoC4/StripLights.c **** *  None 
 563:Generated_Source\PSoC4/StripLights.c **** *******************************************************************************/
 564:Generated_Source\PSoC4/StripLights.c **** void StripLights_Pixel(int32 x, int32 y, uint32 color)
 565:Generated_Source\PSoC4/StripLights.c **** {
 534              		.loc 1 565 0
 535              		.cfi_startproc
 536              		@ args = 0, pretend = 0, frame = 0
 537              		@ frame_needed = 0, uses_anonymous_args = 0
 538              		@ link register save eliminated.
 539              	.LVL29:
 566:Generated_Source\PSoC4/StripLights.c **** 
 567:Generated_Source\PSoC4/StripLights.c **** 	if((x >= StripLights_MIN_X) && (y >= StripLights_MIN_Y) && (x <= StripLights_MAX_X) && (y <= Strip
 540              		.loc 1 567 0
 541 0000 0028     		cmp	r0, #0
 542 0002 0BDB     		blt	.L37
 543              		.loc 1 567 0 is_stmt 0 discriminator 1
 544 0004 0029     		cmp	r1, #0
 545 0006 09DB     		blt	.L37
 546              		.loc 1 567 0 discriminator 2
 547 0008 3B28     		cmp	r0, #59
 548 000a 07DC     		bgt	.L37
 549              		.loc 1 567 0 discriminator 3
 550 000c 0029     		cmp	r1, #0
 551 000e 05DC     		bgt	.L37
 568:Generated_Source\PSoC4/StripLights.c ****     {
 569:Generated_Source\PSoC4/StripLights.c **** 
 570:Generated_Source\PSoC4/StripLights.c ****     #if(StripLights_MEMORY_TYPE == StripLights_MEMORY_RGB)
 571:Generated_Source\PSoC4/StripLights.c ****        StripLights_ledArray[y][x] = color;
 572:Generated_Source\PSoC4/StripLights.c ****     #else  /* Else use lookup table */
 573:Generated_Source\PSoC4/StripLights.c ****        StripLights_ledArray[y][x] = (uint8)color;
 552              		.loc 1 573 0 is_stmt 1
 553 0010 0B01     		lsls	r3, r1, #4
 554 0012 591A     		subs	r1, r3, r1
 555              	.LVL30:
 556 0014 8B00     		lsls	r3, r1, #2
 557 0016 0249     		ldr	r1, .L39
 558 0018 CB18     		adds	r3, r1, r3
 559 001a 1A54     		strb	r2, [r3, r0]
ARM GAS  C:\Users\ADMIN\AppData\Local\Temp\cckytse1.s 			page 21


 560              	.L37:
 574:Generated_Source\PSoC4/StripLights.c ****     #endif
 575:Generated_Source\PSoC4/StripLights.c ****     }
 576:Generated_Source\PSoC4/StripLights.c ****   
 577:Generated_Source\PSoC4/StripLights.c **** }
 561              		.loc 1 577 0
 562              		@ sp needed
 563 001c 7047     		bx	lr
 564              	.L40:
 565 001e C046     		.align	2
 566              	.L39:
 567 0020 00000000 		.word	StripLights_ledArray
 568              		.cfi_endproc
 569              	.LFE42:
 570              		.size	StripLights_Pixel, .-StripLights_Pixel
 571              		.section	.text.StripLights_GetPixel,"ax",%progbits
 572              		.align	2
 573              		.global	StripLights_GetPixel
 574              		.code	16
 575              		.thumb_func
 576              		.type	StripLights_GetPixel, %function
 577              	StripLights_GetPixel:
 578              	.LFB43:
 578:Generated_Source\PSoC4/StripLights.c **** 
 579:Generated_Source\PSoC4/StripLights.c **** /*******************************************************************************
 580:Generated_Source\PSoC4/StripLights.c **** * Function Name: StripLights_GetPixel
 581:Generated_Source\PSoC4/StripLights.c **** ********************************************************************************
 582:Generated_Source\PSoC4/StripLights.c **** *
 583:Generated_Source\PSoC4/StripLights.c **** * Summary:
 584:Generated_Source\PSoC4/StripLights.c **** *  Get Pixel Color  
 585:Generated_Source\PSoC4/StripLights.c **** *
 586:Generated_Source\PSoC4/StripLights.c **** * Parameters:  
 587:Generated_Source\PSoC4/StripLights.c **** *  x,y:    Location to get pixel color
 588:Generated_Source\PSoC4/StripLights.c **** *
 589:Generated_Source\PSoC4/StripLights.c **** * Return: 
 590:Generated_Source\PSoC4/StripLights.c **** *  None 
 591:Generated_Source\PSoC4/StripLights.c **** *******************************************************************************/
 592:Generated_Source\PSoC4/StripLights.c **** uint32 StripLights_GetPixel(int32 x, int32 y)
 593:Generated_Source\PSoC4/StripLights.c **** {
 579              		.loc 1 593 0
 580              		.cfi_startproc
 581              		@ args = 0, pretend = 0, frame = 0
 582              		@ frame_needed = 0, uses_anonymous_args = 0
 583              		@ link register save eliminated.
 584              	.LVL31:
 594:Generated_Source\PSoC4/StripLights.c ****     uint32 color;
 595:Generated_Source\PSoC4/StripLights.c ****     if((x>=0) && (y>=0) && (x < StripLights_ARRAY_COLS) && (y < StripLights_ARRAY_ROWS))
 585              		.loc 1 595 0
 586 0000 0028     		cmp	r0, #0
 587 0002 0BDB     		blt	.L42
 588              		.loc 1 595 0 is_stmt 0 discriminator 1
 589 0004 0029     		cmp	r1, #0
 590 0006 09DB     		blt	.L42
 591              		.loc 1 595 0 discriminator 2
 592 0008 3B28     		cmp	r0, #59
 593 000a 07DC     		bgt	.L42
 594              		.loc 1 595 0 discriminator 3
ARM GAS  C:\Users\ADMIN\AppData\Local\Temp\cckytse1.s 			page 22


 595 000c 0029     		cmp	r1, #0
 596 000e 05DC     		bgt	.L42
 596:Generated_Source\PSoC4/StripLights.c ****     {
 597:Generated_Source\PSoC4/StripLights.c ****     #if(StripLights_MEMORY_TYPE == StripLights_MEMORY_RGB)
 598:Generated_Source\PSoC4/StripLights.c ****        color = StripLights_ledArray[y][x];
 599:Generated_Source\PSoC4/StripLights.c ****     #else  /* Else use lookup table */
 600:Generated_Source\PSoC4/StripLights.c ****        color = (uint32)StripLights_ledArray[y][x];
 597              		.loc 1 600 0 is_stmt 1
 598 0010 0B01     		lsls	r3, r1, #4
 599 0012 591A     		subs	r1, r3, r1
 600              	.LVL32:
 601 0014 8B00     		lsls	r3, r1, #2
 602 0016 024A     		ldr	r2, .L43
 603 0018 D318     		adds	r3, r2, r3
 604 001a 1B5C     		ldrb	r3, [r3, r0]
 605              	.LVL33:
 606              	.L42:
 601:Generated_Source\PSoC4/StripLights.c ****     #endif
 602:Generated_Source\PSoC4/StripLights.c ****     }
 603:Generated_Source\PSoC4/StripLights.c ****     return(color);
 604:Generated_Source\PSoC4/StripLights.c **** }
 607              		.loc 1 604 0
 608 001c 1800     		movs	r0, r3
 609              	.LVL34:
 610              		@ sp needed
 611 001e 7047     		bx	lr
 612              	.L44:
 613              		.align	2
 614              	.L43:
 615 0020 00000000 		.word	StripLights_ledArray
 616              		.cfi_endproc
 617              	.LFE43:
 618              		.size	StripLights_GetPixel, .-StripLights_GetPixel
 619              		.section	.text.StripLights_DrawCircle,"ax",%progbits
 620              		.align	2
 621              		.global	StripLights_DrawCircle
 622              		.code	16
 623              		.thumb_func
 624              		.type	StripLights_DrawCircle, %function
 625              	StripLights_DrawCircle:
 626              	.LFB44:
 605:Generated_Source\PSoC4/StripLights.c **** 
 606:Generated_Source\PSoC4/StripLights.c **** /*******************************************************************************
 607:Generated_Source\PSoC4/StripLights.c **** * Function Name: StripLights_DrawCircle
 608:Generated_Source\PSoC4/StripLights.c **** ********************************************************************************
 609:Generated_Source\PSoC4/StripLights.c **** *
 610:Generated_Source\PSoC4/StripLights.c **** * Summary:
 611:Generated_Source\PSoC4/StripLights.c **** *  Draw a circle on the display given a start point and radius.  
 612:Generated_Source\PSoC4/StripLights.c **** *
 613:Generated_Source\PSoC4/StripLights.c **** *  This code uses Bresenham's Circle Algorithm. 
 614:Generated_Source\PSoC4/StripLights.c **** *
 615:Generated_Source\PSoC4/StripLights.c **** * Parameters:  
 616:Generated_Source\PSoC4/StripLights.c **** *  x0, y0: Center of circle
 617:Generated_Source\PSoC4/StripLights.c **** *  radius: Radius of circle
 618:Generated_Source\PSoC4/StripLights.c **** *  color:  Color of circle
 619:Generated_Source\PSoC4/StripLights.c **** *
 620:Generated_Source\PSoC4/StripLights.c **** * Return: 
ARM GAS  C:\Users\ADMIN\AppData\Local\Temp\cckytse1.s 			page 23


 621:Generated_Source\PSoC4/StripLights.c **** *  None 
 622:Generated_Source\PSoC4/StripLights.c **** *  
 623:Generated_Source\PSoC4/StripLights.c **** *******************************************************************************/
 624:Generated_Source\PSoC4/StripLights.c **** void StripLights_DrawCircle (int32 x0, int32 y0, int32 radius, uint32 color)
 625:Generated_Source\PSoC4/StripLights.c **** {
 627              		.loc 1 625 0
 628              		.cfi_startproc
 629              		@ args = 0, pretend = 0, frame = 16
 630              		@ frame_needed = 0, uses_anonymous_args = 0
 631              	.LVL35:
 632 0000 F0B5     		push	{r4, r5, r6, r7, lr}
 633              		.cfi_def_cfa_offset 20
 634              		.cfi_offset 4, -20
 635              		.cfi_offset 5, -16
 636              		.cfi_offset 6, -12
 637              		.cfi_offset 7, -8
 638              		.cfi_offset 14, -4
 639 0002 5F46     		mov	r7, fp
 640 0004 5646     		mov	r6, r10
 641 0006 4D46     		mov	r5, r9
 642 0008 4446     		mov	r4, r8
 643 000a F0B4     		push	{r4, r5, r6, r7}
 644              		.cfi_def_cfa_offset 36
 645              		.cfi_offset 8, -36
 646              		.cfi_offset 9, -32
 647              		.cfi_offset 10, -28
 648              		.cfi_offset 11, -24
 649 000c 85B0     		sub	sp, sp, #20
 650              		.cfi_def_cfa_offset 56
 651 000e 8346     		mov	fp, r0
 652 0010 8846     		mov	r8, r1
 653 0012 1400     		movs	r4, r2
 654 0014 1D00     		movs	r5, r3
 655 0016 0193     		str	r3, [sp, #4]
 626:Generated_Source\PSoC4/StripLights.c **** 	int32 f = 1 - radius;
 656              		.loc 1 626 0
 657 0018 0123     		movs	r3, #1
 658              	.LVL36:
 659 001a 9B1A     		subs	r3, r3, r2
 660 001c 9946     		mov	r9, r3
 661              	.LVL37:
 627:Generated_Source\PSoC4/StripLights.c **** 	int32 ddF_x = 0;
 628:Generated_Source\PSoC4/StripLights.c **** 	int32 ddF_y = -2 * radius;
 662              		.loc 1 628 0
 663 001e D307     		lsls	r3, r2, #31
 664              	.LVL38:
 665 0020 9B1A     		subs	r3, r3, r2
 666 0022 5A00     		lsls	r2, r3, #1
 667              	.LVL39:
 668 0024 9246     		mov	r10, r2
 669              	.LVL40:
 629:Generated_Source\PSoC4/StripLights.c **** 	int32 x = 0;
 630:Generated_Source\PSoC4/StripLights.c **** 	int32 y = radius;
 631:Generated_Source\PSoC4/StripLights.c **** 
 632:Generated_Source\PSoC4/StripLights.c **** 	StripLights_Pixel(x0, y0 + radius, color);
 670              		.loc 1 632 0
 671 0026 6118     		adds	r1, r4, r1
ARM GAS  C:\Users\ADMIN\AppData\Local\Temp\cckytse1.s 			page 24


 672              	.LVL41:
 673 0028 2A00     		movs	r2, r5
 674              	.LVL42:
 675 002a FFF7FEFF 		bl	StripLights_Pixel
 676              	.LVL43:
 633:Generated_Source\PSoC4/StripLights.c **** 	StripLights_Pixel(x0, y0 - radius, color);
 677              		.loc 1 633 0
 678 002e 4346     		mov	r3, r8
 679 0030 191B     		subs	r1, r3, r4
 680 0032 2A00     		movs	r2, r5
 681 0034 5846     		mov	r0, fp
 682 0036 FFF7FEFF 		bl	StripLights_Pixel
 683              	.LVL44:
 634:Generated_Source\PSoC4/StripLights.c **** 	StripLights_Pixel( x0 + radius, y0, color);
 684              		.loc 1 634 0
 685 003a 5B46     		mov	r3, fp
 686 003c E018     		adds	r0, r4, r3
 687 003e 2A00     		movs	r2, r5
 688 0040 4146     		mov	r1, r8
 689 0042 FFF7FEFF 		bl	StripLights_Pixel
 690              	.LVL45:
 635:Generated_Source\PSoC4/StripLights.c **** 	StripLights_Pixel( x0 - radius, y0, color);
 691              		.loc 1 635 0
 692 0046 5B46     		mov	r3, fp
 693 0048 181B     		subs	r0, r3, r4
 694 004a 2A00     		movs	r2, r5
 695 004c 4146     		mov	r1, r8
 696 004e FFF7FEFF 		bl	StripLights_Pixel
 697              	.LVL46:
 629:Generated_Source\PSoC4/StripLights.c **** 	int32 y = radius;
 698              		.loc 1 629 0
 699 0052 0026     		movs	r6, #0
 627:Generated_Source\PSoC4/StripLights.c **** 	int32 ddF_y = -2 * radius;
 700              		.loc 1 627 0
 701 0054 0023     		movs	r3, #0
 636:Generated_Source\PSoC4/StripLights.c **** 
 637:Generated_Source\PSoC4/StripLights.c **** 	while(x < y)
 702              		.loc 1 637 0
 703 0056 48E0     		b	.L46
 704              	.LVL47:
 705              	.L48:
 638:Generated_Source\PSoC4/StripLights.c **** 	{
 639:Generated_Source\PSoC4/StripLights.c **** 		if(f >= 0)
 706              		.loc 1 639 0
 707 0058 4A46     		mov	r2, r9
 708 005a 002A     		cmp	r2, #0
 709 005c 04DB     		blt	.L47
 710              	.LVL48:
 640:Generated_Source\PSoC4/StripLights.c **** 		{
 641:Generated_Source\PSoC4/StripLights.c **** 			y--;
 711              		.loc 1 641 0
 712 005e 013C     		subs	r4, r4, #1
 713              	.LVL49:
 642:Generated_Source\PSoC4/StripLights.c **** 			ddF_y += 2;
 714              		.loc 1 642 0
 715 0060 0222     		movs	r2, #2
 716              	.LVL50:
ARM GAS  C:\Users\ADMIN\AppData\Local\Temp\cckytse1.s 			page 25


 717 0062 9446     		mov	ip, r2
 718 0064 E244     		add	r10, r10, ip
 719              	.LVL51:
 643:Generated_Source\PSoC4/StripLights.c **** 			f += ddF_y;
 720              		.loc 1 643 0
 721 0066 D144     		add	r9, r9, r10
 722              	.LVL52:
 723              	.L47:
 644:Generated_Source\PSoC4/StripLights.c **** 		}
 645:Generated_Source\PSoC4/StripLights.c **** 		x++;
 724              		.loc 1 645 0
 725 0068 0136     		adds	r6, r6, #1
 726              	.LVL53:
 646:Generated_Source\PSoC4/StripLights.c **** 		ddF_x += 2;
 727              		.loc 1 646 0
 728 006a 9A1C     		adds	r2, r3, #2
 729 006c 0292     		str	r2, [sp, #8]
 730              	.LVL54:
 647:Generated_Source\PSoC4/StripLights.c **** 		f += ddF_x + 1;
 731              		.loc 1 647 0
 732 006e 0333     		adds	r3, r3, #3
 733 0070 9944     		add	r9, r9, r3
 734              	.LVL55:
 648:Generated_Source\PSoC4/StripLights.c **** 
 649:Generated_Source\PSoC4/StripLights.c **** 		StripLights_Pixel(x0 + x, y0 + y, color);
 735              		.loc 1 649 0
 736 0072 5946     		mov	r1, fp
 737 0074 8F19     		adds	r7, r1, r6
 738 0076 4146     		mov	r1, r8
 739 0078 6318     		adds	r3, r4, r1
 740 007a 019A     		ldr	r2, [sp, #4]
 741              	.LVL56:
 742 007c 0393     		str	r3, [sp, #12]
 743 007e 1900     		movs	r1, r3
 744 0080 3800     		movs	r0, r7
 745 0082 FFF7FEFF 		bl	StripLights_Pixel
 746              	.LVL57:
 650:Generated_Source\PSoC4/StripLights.c **** 		StripLights_Pixel(x0 - x, y0 + y, color);
 747              		.loc 1 650 0
 748 0086 5846     		mov	r0, fp
 749 0088 851B     		subs	r5, r0, r6
 750 008a 019A     		ldr	r2, [sp, #4]
 751 008c 0399     		ldr	r1, [sp, #12]
 752 008e 2800     		movs	r0, r5
 753 0090 FFF7FEFF 		bl	StripLights_Pixel
 754              	.LVL58:
 651:Generated_Source\PSoC4/StripLights.c **** 		StripLights_Pixel( x0 + x, y0 - y, color);
 755              		.loc 1 651 0
 756 0094 4146     		mov	r1, r8
 757 0096 0B1B     		subs	r3, r1, r4
 758 0098 019A     		ldr	r2, [sp, #4]
 759 009a 0393     		str	r3, [sp, #12]
 760 009c 1900     		movs	r1, r3
 761 009e 3800     		movs	r0, r7
 762 00a0 FFF7FEFF 		bl	StripLights_Pixel
 763              	.LVL59:
 652:Generated_Source\PSoC4/StripLights.c **** 		StripLights_Pixel( x0 - x, y0 - y, color);
ARM GAS  C:\Users\ADMIN\AppData\Local\Temp\cckytse1.s 			page 26


 764              		.loc 1 652 0
 765 00a4 019A     		ldr	r2, [sp, #4]
 766 00a6 0399     		ldr	r1, [sp, #12]
 767 00a8 2800     		movs	r0, r5
 768 00aa FFF7FEFF 		bl	StripLights_Pixel
 769              	.LVL60:
 653:Generated_Source\PSoC4/StripLights.c **** 		StripLights_Pixel( x0 + y, y0 + x, color);
 770              		.loc 1 653 0
 771 00ae 5946     		mov	r1, fp
 772 00b0 6718     		adds	r7, r4, r1
 773 00b2 4146     		mov	r1, r8
 774 00b4 8D19     		adds	r5, r1, r6
 775 00b6 019A     		ldr	r2, [sp, #4]
 776 00b8 2900     		movs	r1, r5
 777 00ba 3800     		movs	r0, r7
 778 00bc FFF7FEFF 		bl	StripLights_Pixel
 779              	.LVL61:
 654:Generated_Source\PSoC4/StripLights.c **** 		StripLights_Pixel( x0 - y, y0 + x, color);
 780              		.loc 1 654 0
 781 00c0 5946     		mov	r1, fp
 782 00c2 0B1B     		subs	r3, r1, r4
 783 00c4 019A     		ldr	r2, [sp, #4]
 784 00c6 2900     		movs	r1, r5
 785 00c8 0393     		str	r3, [sp, #12]
 786 00ca 1800     		movs	r0, r3
 787 00cc FFF7FEFF 		bl	StripLights_Pixel
 788              	.LVL62:
 655:Generated_Source\PSoC4/StripLights.c **** 		StripLights_Pixel( x0 + y, y0 - x, color);
 789              		.loc 1 655 0
 790 00d0 4146     		mov	r1, r8
 791 00d2 8D1B     		subs	r5, r1, r6
 792 00d4 019A     		ldr	r2, [sp, #4]
 793 00d6 2900     		movs	r1, r5
 794 00d8 3800     		movs	r0, r7
 795 00da FFF7FEFF 		bl	StripLights_Pixel
 796              	.LVL63:
 656:Generated_Source\PSoC4/StripLights.c **** 		StripLights_Pixel( x0 - y, y0 - x, color);
 797              		.loc 1 656 0
 798 00de 019A     		ldr	r2, [sp, #4]
 799 00e0 2900     		movs	r1, r5
 800 00e2 0398     		ldr	r0, [sp, #12]
 801 00e4 FFF7FEFF 		bl	StripLights_Pixel
 802              	.LVL64:
 646:Generated_Source\PSoC4/StripLights.c **** 		f += ddF_x + 1;
 803              		.loc 1 646 0
 804 00e8 029B     		ldr	r3, [sp, #8]
 805              	.LVL65:
 806              	.L46:
 637:Generated_Source\PSoC4/StripLights.c **** 	{
 807              		.loc 1 637 0
 808 00ea A642     		cmp	r6, r4
 809 00ec B4DB     		blt	.L48
 657:Generated_Source\PSoC4/StripLights.c **** 	}
 658:Generated_Source\PSoC4/StripLights.c **** }
 810              		.loc 1 658 0
 811 00ee 05B0     		add	sp, sp, #20
 812              		@ sp needed
ARM GAS  C:\Users\ADMIN\AppData\Local\Temp\cckytse1.s 			page 27


 813              	.LVL66:
 814              	.LVL67:
 815              	.LVL68:
 816              	.LVL69:
 817              	.LVL70:
 818              	.LVL71:
 819 00f0 3CBC     		pop	{r2, r3, r4, r5}
 820 00f2 9046     		mov	r8, r2
 821 00f4 9946     		mov	r9, r3
 822 00f6 A246     		mov	r10, r4
 823 00f8 AB46     		mov	fp, r5
 824 00fa F0BD     		pop	{r4, r5, r6, r7, pc}
 825              		.cfi_endproc
 826              	.LFE44:
 827              		.size	StripLights_DrawCircle, .-StripLights_DrawCircle
 828              		.section	.text.StripLights_DrawLine,"ax",%progbits
 829              		.align	2
 830              		.global	StripLights_DrawLine
 831              		.code	16
 832              		.thumb_func
 833              		.type	StripLights_DrawLine, %function
 834              	StripLights_DrawLine:
 835              	.LFB45:
 659:Generated_Source\PSoC4/StripLights.c **** 
 660:Generated_Source\PSoC4/StripLights.c **** 
 661:Generated_Source\PSoC4/StripLights.c **** /*******************************************************************************
 662:Generated_Source\PSoC4/StripLights.c **** * Function Name: StripLights_DrawLine
 663:Generated_Source\PSoC4/StripLights.c **** ********************************************************************************
 664:Generated_Source\PSoC4/StripLights.c **** *
 665:Generated_Source\PSoC4/StripLights.c **** * Summary:
 666:Generated_Source\PSoC4/StripLights.c **** *  Draw a line on the display.  
 667:Generated_Source\PSoC4/StripLights.c **** *
 668:Generated_Source\PSoC4/StripLights.c **** * Parameters:  
 669:Generated_Source\PSoC4/StripLights.c **** *  x0, y0:  The beginning endpoint
 670:Generated_Source\PSoC4/StripLights.c **** *  x1, y1:  The end endpoint.
 671:Generated_Source\PSoC4/StripLights.c **** *  color:   Color of the line.
 672:Generated_Source\PSoC4/StripLights.c **** *
 673:Generated_Source\PSoC4/StripLights.c **** * Return: 
 674:Generated_Source\PSoC4/StripLights.c **** *  None 
 675:Generated_Source\PSoC4/StripLights.c **** *  
 676:Generated_Source\PSoC4/StripLights.c **** *******************************************************************************/
 677:Generated_Source\PSoC4/StripLights.c **** void StripLights_DrawLine(int32 x0, int32 y0, int32 x1, int32 y1, uint32 color)
 678:Generated_Source\PSoC4/StripLights.c **** {
 836              		.loc 1 678 0
 837              		.cfi_startproc
 838              		@ args = 4, pretend = 0, frame = 8
 839              		@ frame_needed = 0, uses_anonymous_args = 0
 840              	.LVL72:
 841 0000 F0B5     		push	{r4, r5, r6, r7, lr}
 842              		.cfi_def_cfa_offset 20
 843              		.cfi_offset 4, -20
 844              		.cfi_offset 5, -16
 845              		.cfi_offset 6, -12
 846              		.cfi_offset 7, -8
 847              		.cfi_offset 14, -4
 848 0002 5F46     		mov	r7, fp
 849 0004 5646     		mov	r6, r10
ARM GAS  C:\Users\ADMIN\AppData\Local\Temp\cckytse1.s 			page 28


 850 0006 4D46     		mov	r5, r9
 851 0008 4446     		mov	r4, r8
 852 000a F0B4     		push	{r4, r5, r6, r7}
 853              		.cfi_def_cfa_offset 36
 854              		.cfi_offset 8, -36
 855              		.cfi_offset 9, -32
 856              		.cfi_offset 10, -28
 857              		.cfi_offset 11, -24
 858 000c 83B0     		sub	sp, sp, #12
 859              		.cfi_def_cfa_offset 48
 860 000e 0400     		movs	r4, r0
 861 0010 0D00     		movs	r5, r1
 862 0012 0192     		str	r2, [sp, #4]
 863 0014 9B46     		mov	fp, r3
 679:Generated_Source\PSoC4/StripLights.c **** 	int32 dy = y1 - y0; /* Difference between y0 and y1 */
 864              		.loc 1 679 0
 865 0016 5B1A     		subs	r3, r3, r1
 866              	.LVL73:
 680:Generated_Source\PSoC4/StripLights.c **** 	int32 dx = x1 - x0; /* Difference between x0 and x1 */
 867              		.loc 1 680 0
 868 0018 171A     		subs	r7, r2, r0
 869              	.LVL74:
 681:Generated_Source\PSoC4/StripLights.c **** 	int32 stepx, stepy;
 682:Generated_Source\PSoC4/StripLights.c **** 
 683:Generated_Source\PSoC4/StripLights.c **** 	if (dy < 0)
 870              		.loc 1 683 0
 871 001a 002B     		cmp	r3, #0
 872 001c 04DA     		bge	.L60
 684:Generated_Source\PSoC4/StripLights.c **** 	{
 685:Generated_Source\PSoC4/StripLights.c **** 		dy = -dy;
 873              		.loc 1 685 0
 874 001e 5B42     		rsbs	r3, r3, #0
 875              	.LVL75:
 686:Generated_Source\PSoC4/StripLights.c **** 		stepy = -1;
 876              		.loc 1 686 0
 877 0020 0122     		movs	r2, #1
 878              	.LVL76:
 879 0022 5242     		rsbs	r2, r2, #0
 880 0024 9246     		mov	r10, r2
 881 0026 01E0     		b	.L50
 882              	.LVL77:
 883              	.L60:
 687:Generated_Source\PSoC4/StripLights.c **** 	}
 688:Generated_Source\PSoC4/StripLights.c **** 	else
 689:Generated_Source\PSoC4/StripLights.c **** 	{
 690:Generated_Source\PSoC4/StripLights.c **** 		stepy = 1;
 884              		.loc 1 690 0
 885 0028 0122     		movs	r2, #1
 886              	.LVL78:
 887 002a 9246     		mov	r10, r2
 888              	.L50:
 889              	.LVL79:
 691:Generated_Source\PSoC4/StripLights.c **** 	}
 692:Generated_Source\PSoC4/StripLights.c **** 
 693:Generated_Source\PSoC4/StripLights.c **** 	if (dx < 0)
 890              		.loc 1 693 0
 891 002c 002F     		cmp	r7, #0
ARM GAS  C:\Users\ADMIN\AppData\Local\Temp\cckytse1.s 			page 29


 892 002e 04DA     		bge	.L61
 694:Generated_Source\PSoC4/StripLights.c **** 	{
 695:Generated_Source\PSoC4/StripLights.c **** 		dx = -dx;
 893              		.loc 1 695 0
 894 0030 7F42     		rsbs	r7, r7, #0
 895              	.LVL80:
 696:Generated_Source\PSoC4/StripLights.c **** 		stepx = -1;
 896              		.loc 1 696 0
 897 0032 0122     		movs	r2, #1
 898 0034 5242     		rsbs	r2, r2, #0
 899 0036 9146     		mov	r9, r2
 900 0038 01E0     		b	.L51
 901              	.LVL81:
 902              	.L61:
 697:Generated_Source\PSoC4/StripLights.c **** 	}
 698:Generated_Source\PSoC4/StripLights.c **** 	else
 699:Generated_Source\PSoC4/StripLights.c **** 	{
 700:Generated_Source\PSoC4/StripLights.c **** 		stepx = 1;
 903              		.loc 1 700 0
 904 003a 0122     		movs	r2, #1
 905 003c 9146     		mov	r9, r2
 906              	.L51:
 907              	.LVL82:
 701:Generated_Source\PSoC4/StripLights.c **** 	}
 702:Generated_Source\PSoC4/StripLights.c **** 
 703:Generated_Source\PSoC4/StripLights.c **** 	dy <<= 1; /* dy is now 2*dy  */
 908              		.loc 1 703 0
 909 003e 5B00     		lsls	r3, r3, #1
 910              	.LVL83:
 911 0040 9846     		mov	r8, r3
 912              	.LVL84:
 704:Generated_Source\PSoC4/StripLights.c **** 	dx <<= 1; /* dx is now 2*dx  */
 913              		.loc 1 704 0
 914 0042 7F00     		lsls	r7, r7, #1
 915              	.LVL85:
 705:Generated_Source\PSoC4/StripLights.c **** 	StripLights_Pixel(x0, y0, color);
 916              		.loc 1 705 0
 917 0044 0C9A     		ldr	r2, [sp, #48]
 918 0046 2900     		movs	r1, r5
 919              	.LVL86:
 920 0048 2000     		movs	r0, r4
 921              	.LVL87:
 922 004a FFF7FEFF 		bl	StripLights_Pixel
 923              	.LVL88:
 706:Generated_Source\PSoC4/StripLights.c **** 
 707:Generated_Source\PSoC4/StripLights.c **** 	if (dx > dy) 
 924              		.loc 1 707 0
 925 004e B845     		cmp	r8, r7
 926 0050 12DA     		bge	.L52
 927              	.LBB2:
 708:Generated_Source\PSoC4/StripLights.c **** 	{
 709:Generated_Source\PSoC4/StripLights.c **** 		int fraction = dy - (dx >> 1);
 928              		.loc 1 709 0
 929 0052 7B10     		asrs	r3, r7, #1
 930 0054 4246     		mov	r2, r8
 931 0056 D61A     		subs	r6, r2, r3
 932              	.LVL89:
ARM GAS  C:\Users\ADMIN\AppData\Local\Temp\cckytse1.s 			page 30


 710:Generated_Source\PSoC4/StripLights.c **** 		while (x0 != x1)
 933              		.loc 1 710 0
 934 0058 0AE0     		b	.L53
 935              	.L55:
 711:Generated_Source\PSoC4/StripLights.c **** 		{
 712:Generated_Source\PSoC4/StripLights.c **** 			if (fraction >= 0)
 936              		.loc 1 712 0
 937 005a 002E     		cmp	r6, #0
 938 005c 01DB     		blt	.L54
 713:Generated_Source\PSoC4/StripLights.c **** 			{
 714:Generated_Source\PSoC4/StripLights.c **** 				y0 += stepy;
 939              		.loc 1 714 0
 940 005e 5544     		add	r5, r5, r10
 941              	.LVL90:
 715:Generated_Source\PSoC4/StripLights.c **** 				fraction -= dx;
 942              		.loc 1 715 0
 943 0060 F61B     		subs	r6, r6, r7
 944              	.LVL91:
 945              	.L54:
 716:Generated_Source\PSoC4/StripLights.c **** 			}
 717:Generated_Source\PSoC4/StripLights.c **** 			x0 += stepx;
 946              		.loc 1 717 0
 947 0062 4C44     		add	r4, r4, r9
 948              	.LVL92:
 718:Generated_Source\PSoC4/StripLights.c **** 			fraction += dy;
 949              		.loc 1 718 0
 950 0064 4644     		add	r6, r6, r8
 951              	.LVL93:
 719:Generated_Source\PSoC4/StripLights.c **** 			StripLights_Pixel(x0, y0, color);
 952              		.loc 1 719 0
 953 0066 0C9A     		ldr	r2, [sp, #48]
 954 0068 2900     		movs	r1, r5
 955 006a 2000     		movs	r0, r4
 956 006c FFF7FEFF 		bl	StripLights_Pixel
 957              	.LVL94:
 958              	.L53:
 710:Generated_Source\PSoC4/StripLights.c **** 		{
 959              		.loc 1 710 0
 960 0070 019B     		ldr	r3, [sp, #4]
 961 0072 9C42     		cmp	r4, r3
 962 0074 F1D1     		bne	.L55
 963 0076 11E0     		b	.L49
 964              	.LVL95:
 965              	.L52:
 966              	.LBE2:
 967              	.LBB3:
 720:Generated_Source\PSoC4/StripLights.c **** 		}
 721:Generated_Source\PSoC4/StripLights.c **** 	}
 722:Generated_Source\PSoC4/StripLights.c **** 	else
 723:Generated_Source\PSoC4/StripLights.c **** 	{
 724:Generated_Source\PSoC4/StripLights.c **** 		int fraction = dx - (dy >> 1);
 968              		.loc 1 724 0
 969 0078 4346     		mov	r3, r8
 970 007a 5E10     		asrs	r6, r3, #1
 971 007c BE1B     		subs	r6, r7, r6
 972              	.LVL96:
 725:Generated_Source\PSoC4/StripLights.c **** 		while (y0 != y1)
ARM GAS  C:\Users\ADMIN\AppData\Local\Temp\cckytse1.s 			page 31


 973              		.loc 1 725 0
 974 007e 0BE0     		b	.L57
 975              	.L59:
 726:Generated_Source\PSoC4/StripLights.c **** 		{
 727:Generated_Source\PSoC4/StripLights.c **** 			if (fraction >= 0)
 976              		.loc 1 727 0
 977 0080 002E     		cmp	r6, #0
 978 0082 02DB     		blt	.L58
 728:Generated_Source\PSoC4/StripLights.c **** 			{
 729:Generated_Source\PSoC4/StripLights.c **** 				x0 += stepx;
 979              		.loc 1 729 0
 980 0084 4C44     		add	r4, r4, r9
 981              	.LVL97:
 730:Generated_Source\PSoC4/StripLights.c **** 				fraction -= dy;
 982              		.loc 1 730 0
 983 0086 4346     		mov	r3, r8
 984 0088 F61A     		subs	r6, r6, r3
 985              	.LVL98:
 986              	.L58:
 731:Generated_Source\PSoC4/StripLights.c **** 			}
 732:Generated_Source\PSoC4/StripLights.c **** 			y0 += stepy;
 987              		.loc 1 732 0
 988 008a 5544     		add	r5, r5, r10
 989              	.LVL99:
 733:Generated_Source\PSoC4/StripLights.c **** 			fraction += dx;
 990              		.loc 1 733 0
 991 008c F619     		adds	r6, r6, r7
 992              	.LVL100:
 734:Generated_Source\PSoC4/StripLights.c **** 			StripLights_Pixel( x0, y0, color);
 993              		.loc 1 734 0
 994 008e 0C9A     		ldr	r2, [sp, #48]
 995 0090 2900     		movs	r1, r5
 996 0092 2000     		movs	r0, r4
 997 0094 FFF7FEFF 		bl	StripLights_Pixel
 998              	.LVL101:
 999              	.L57:
 725:Generated_Source\PSoC4/StripLights.c **** 		{
 1000              		.loc 1 725 0
 1001 0098 5D45     		cmp	r5, fp
 1002 009a F1D1     		bne	.L59
 1003              	.LVL102:
 1004              	.L49:
 1005              	.LBE3:
 735:Generated_Source\PSoC4/StripLights.c **** 		}
 736:Generated_Source\PSoC4/StripLights.c **** 	}
 737:Generated_Source\PSoC4/StripLights.c **** }
 1006              		.loc 1 737 0
 1007 009c 03B0     		add	sp, sp, #12
 1008              		@ sp needed
 1009              	.LVL103:
 1010              	.LVL104:
 1011              	.LVL105:
 1012              	.LVL106:
 1013              	.LVL107:
 1014              	.LVL108:
 1015              	.LVL109:
 1016 009e 3CBC     		pop	{r2, r3, r4, r5}
ARM GAS  C:\Users\ADMIN\AppData\Local\Temp\cckytse1.s 			page 32


 1017 00a0 9046     		mov	r8, r2
 1018 00a2 9946     		mov	r9, r3
 1019 00a4 A246     		mov	r10, r4
 1020 00a6 AB46     		mov	fp, r5
 1021 00a8 F0BD     		pop	{r4, r5, r6, r7, pc}
 1022              		.cfi_endproc
 1023              	.LFE45:
 1024              		.size	StripLights_DrawLine, .-StripLights_DrawLine
 1025 00aa C046     		.section	.text.StripLights_DrawRect,"ax",%progbits
 1026              		.align	2
 1027              		.global	StripLights_DrawRect
 1028              		.code	16
 1029              		.thumb_func
 1030              		.type	StripLights_DrawRect, %function
 1031              	StripLights_DrawRect:
 1032              	.LFB46:
 738:Generated_Source\PSoC4/StripLights.c **** 
 739:Generated_Source\PSoC4/StripLights.c **** /*******************************************************************************
 740:Generated_Source\PSoC4/StripLights.c **** * Function Name: StripLights_DrawRect
 741:Generated_Source\PSoC4/StripLights.c **** ********************************************************************************
 742:Generated_Source\PSoC4/StripLights.c **** *
 743:Generated_Source\PSoC4/StripLights.c **** * Summary:
 744:Generated_Source\PSoC4/StripLights.c **** *  Draw a rectangle, filled or not.  
 745:Generated_Source\PSoC4/StripLights.c **** *
 746:Generated_Source\PSoC4/StripLights.c **** * Parameters:  
 747:Generated_Source\PSoC4/StripLights.c **** *  x0, y0:  The upper lefthand corner.
 748:Generated_Source\PSoC4/StripLights.c **** *  x1, y1:  The lower right corner.
 749:Generated_Source\PSoC4/StripLights.c **** *  fill:    Non-Zero if retangle is to be filled.
 750:Generated_Source\PSoC4/StripLights.c **** *  color:   Color for rectangle, border and fill.
 751:Generated_Source\PSoC4/StripLights.c **** *
 752:Generated_Source\PSoC4/StripLights.c **** * Return: 
 753:Generated_Source\PSoC4/StripLights.c **** *  None 
 754:Generated_Source\PSoC4/StripLights.c **** *  
 755:Generated_Source\PSoC4/StripLights.c **** *******************************************************************************/
 756:Generated_Source\PSoC4/StripLights.c **** void StripLights_DrawRect(int32 x0, int32 y0, int32 x1, int32 y1, int32 fill, uint32 color)
 757:Generated_Source\PSoC4/StripLights.c **** {	
 1033              		.loc 1 757 0
 1034              		.cfi_startproc
 1035              		@ args = 8, pretend = 0, frame = 8
 1036              		@ frame_needed = 0, uses_anonymous_args = 0
 1037              	.LVL110:
 1038 0000 F0B5     		push	{r4, r5, r6, r7, lr}
 1039              		.cfi_def_cfa_offset 20
 1040              		.cfi_offset 4, -20
 1041              		.cfi_offset 5, -16
 1042              		.cfi_offset 6, -12
 1043              		.cfi_offset 7, -8
 1044              		.cfi_offset 14, -4
 1045 0002 85B0     		sub	sp, sp, #20
 1046              		.cfi_def_cfa_offset 40
 1047 0004 0400     		movs	r4, r0
 1048 0006 0391     		str	r1, [sp, #12]
 1049 0008 1600     		movs	r6, r2
 1050 000a 0293     		str	r3, [sp, #8]
 1051 000c 0B9F     		ldr	r7, [sp, #44]
 758:Generated_Source\PSoC4/StripLights.c ****      int xDiff;
 759:Generated_Source\PSoC4/StripLights.c **** 	/* Check if the rectangle is to be filled    */
ARM GAS  C:\Users\ADMIN\AppData\Local\Temp\cckytse1.s 			page 33


 760:Generated_Source\PSoC4/StripLights.c **** 	if (fill != 0)
 1052              		.loc 1 760 0
 1053 000e 0A9B     		ldr	r3, [sp, #40]
 1054              	.LVL111:
 1055 0010 002B     		cmp	r3, #0
 1056 0012 15D0     		beq	.L63
 761:Generated_Source\PSoC4/StripLights.c **** 	{	
 762:Generated_Source\PSoC4/StripLights.c ****         /* Find the difference between the x vars */
 763:Generated_Source\PSoC4/StripLights.c **** 		if(x0 > x1)
 1057              		.loc 1 763 0
 1058 0014 9042     		cmp	r0, r2
 1059 0016 01DD     		ble	.L64
 764:Generated_Source\PSoC4/StripLights.c **** 		{
 765:Generated_Source\PSoC4/StripLights.c **** 			xDiff = x0 - x1; 
 1060              		.loc 1 765 0
 1061 0018 851A     		subs	r5, r0, r2
 1062              	.LVL112:
 1063 001a 0EE0     		b	.L65
 1064              	.LVL113:
 1065              	.L64:
 766:Generated_Source\PSoC4/StripLights.c **** 		}
 767:Generated_Source\PSoC4/StripLights.c **** 		else
 768:Generated_Source\PSoC4/StripLights.c **** 		{
 769:Generated_Source\PSoC4/StripLights.c **** 			xDiff = x1 - x0;
 1066              		.loc 1 769 0
 1067 001c 151A     		subs	r5, r2, r0
 1068              	.LVL114:
 1069 001e 0CE0     		b	.L65
 1070              	.LVL115:
 1071              	.L69:
 770:Generated_Source\PSoC4/StripLights.c **** 		}
 771:Generated_Source\PSoC4/StripLights.c **** 	
 772:Generated_Source\PSoC4/StripLights.c **** 	    /* Fill it with lines  */
 773:Generated_Source\PSoC4/StripLights.c **** 		while(xDiff >= 0)
 774:Generated_Source\PSoC4/StripLights.c **** 		{
 775:Generated_Source\PSoC4/StripLights.c **** 			StripLights_DrawLine(x0, y0, x0, y1, color);
 1072              		.loc 1 775 0
 1073 0020 0097     		str	r7, [sp]
 1074 0022 029B     		ldr	r3, [sp, #8]
 1075 0024 2200     		movs	r2, r4
 1076 0026 0399     		ldr	r1, [sp, #12]
 1077 0028 2000     		movs	r0, r4
 1078 002a FFF7FEFF 		bl	StripLights_DrawLine
 1079              	.LVL116:
 776:Generated_Source\PSoC4/StripLights.c **** 		
 777:Generated_Source\PSoC4/StripLights.c **** 			if(x0 > x1)
 1080              		.loc 1 777 0
 1081 002e B442     		cmp	r4, r6
 1082 0030 01DD     		ble	.L67
 778:Generated_Source\PSoC4/StripLights.c **** 				x0--;
 1083              		.loc 1 778 0
 1084 0032 013C     		subs	r4, r4, #1
 1085              	.LVL117:
 1086 0034 00E0     		b	.L68
 1087              	.L67:
 779:Generated_Source\PSoC4/StripLights.c **** 			else
 780:Generated_Source\PSoC4/StripLights.c **** 				x0++;
ARM GAS  C:\Users\ADMIN\AppData\Local\Temp\cckytse1.s 			page 34


 1088              		.loc 1 780 0
 1089 0036 0134     		adds	r4, r4, #1
 1090              	.LVL118:
 1091              	.L68:
 781:Generated_Source\PSoC4/StripLights.c **** 		
 782:Generated_Source\PSoC4/StripLights.c **** 			xDiff--;
 1092              		.loc 1 782 0
 1093 0038 013D     		subs	r5, r5, #1
 1094              	.LVL119:
 1095              	.L65:
 773:Generated_Source\PSoC4/StripLights.c **** 		{
 1096              		.loc 1 773 0
 1097 003a 002D     		cmp	r5, #0
 1098 003c F0DA     		bge	.L69
 1099 003e 1AE0     		b	.L62
 1100              	.LVL120:
 1101              	.L63:
 783:Generated_Source\PSoC4/StripLights.c **** 		}
 784:Generated_Source\PSoC4/StripLights.c **** 
 785:Generated_Source\PSoC4/StripLights.c **** 	}
 786:Generated_Source\PSoC4/StripLights.c **** 	else 
 787:Generated_Source\PSoC4/StripLights.c **** 	{
 788:Generated_Source\PSoC4/StripLights.c **** 		/* Draw the four sides of the rectangle */
 789:Generated_Source\PSoC4/StripLights.c **** 		StripLights_DrawLine(x0, y0, x1, y0, color);
 1102              		.loc 1 789 0
 1103 0040 0097     		str	r7, [sp]
 1104 0042 039D     		ldr	r5, [sp, #12]
 1105 0044 2B00     		movs	r3, r5
 1106 0046 2900     		movs	r1, r5
 1107              	.LVL121:
 1108 0048 FFF7FEFF 		bl	StripLights_DrawLine
 1109              	.LVL122:
 790:Generated_Source\PSoC4/StripLights.c **** 		StripLights_DrawLine(x0, y1, x1, y1, color);
 1110              		.loc 1 790 0
 1111 004c 0097     		str	r7, [sp]
 1112 004e 0299     		ldr	r1, [sp, #8]
 1113 0050 0B00     		movs	r3, r1
 1114 0052 3200     		movs	r2, r6
 1115 0054 2000     		movs	r0, r4
 1116 0056 FFF7FEFF 		bl	StripLights_DrawLine
 1117              	.LVL123:
 791:Generated_Source\PSoC4/StripLights.c **** 		StripLights_DrawLine(x0, y0, x0, y1, color);
 1118              		.loc 1 791 0
 1119 005a 0097     		str	r7, [sp]
 1120 005c 029B     		ldr	r3, [sp, #8]
 1121 005e 2200     		movs	r2, r4
 1122 0060 2900     		movs	r1, r5
 1123 0062 2000     		movs	r0, r4
 1124 0064 FFF7FEFF 		bl	StripLights_DrawLine
 1125              	.LVL124:
 792:Generated_Source\PSoC4/StripLights.c **** 		StripLights_DrawLine(x1, y0, x1, y1, color);
 1126              		.loc 1 792 0
 1127 0068 0097     		str	r7, [sp]
 1128 006a 029B     		ldr	r3, [sp, #8]
 1129 006c 3200     		movs	r2, r6
 1130 006e 2900     		movs	r1, r5
 1131 0070 3000     		movs	r0, r6
ARM GAS  C:\Users\ADMIN\AppData\Local\Temp\cckytse1.s 			page 35


 1132 0072 FFF7FEFF 		bl	StripLights_DrawLine
 1133              	.LVL125:
 1134              	.L62:
 793:Generated_Source\PSoC4/StripLights.c **** 	}
 794:Generated_Source\PSoC4/StripLights.c **** }
 1135              		.loc 1 794 0
 1136 0076 05B0     		add	sp, sp, #20
 1137              		@ sp needed
 1138              	.LVL126:
 1139              	.LVL127:
 1140 0078 F0BD     		pop	{r4, r5, r6, r7, pc}
 1141              		.cfi_endproc
 1142              	.LFE46:
 1143              		.size	StripLights_DrawRect, .-StripLights_DrawRect
 1144 007a C046     		.section	.text.StripLights_Dim,"ax",%progbits
 1145              		.align	2
 1146              		.global	StripLights_Dim
 1147              		.code	16
 1148              		.thumb_func
 1149              		.type	StripLights_Dim, %function
 1150              	StripLights_Dim:
 1151              	.LFB47:
 795:Generated_Source\PSoC4/StripLights.c **** 
 796:Generated_Source\PSoC4/StripLights.c **** /*******************************************************************************
 797:Generated_Source\PSoC4/StripLights.c **** * Function Name: StripLights_Dim
 798:Generated_Source\PSoC4/StripLights.c **** ********************************************************************************
 799:Generated_Source\PSoC4/StripLights.c **** *
 800:Generated_Source\PSoC4/StripLights.c **** * Summary:
 801:Generated_Source\PSoC4/StripLights.c **** *  Dim all output by a specific level (0,1,2,3,4)  
 802:Generated_Source\PSoC4/StripLights.c **** *
 803:Generated_Source\PSoC4/StripLights.c **** * Parameters:  
 804:Generated_Source\PSoC4/StripLights.c **** *  dimLevel:  Dim level 1 to 4, 0 => No dimming.
 805:Generated_Source\PSoC4/StripLights.c **** *
 806:Generated_Source\PSoC4/StripLights.c **** * Return: 
 807:Generated_Source\PSoC4/StripLights.c **** *  None 
 808:Generated_Source\PSoC4/StripLights.c **** *  
 809:Generated_Source\PSoC4/StripLights.c **** *******************************************************************************/
 810:Generated_Source\PSoC4/StripLights.c **** void StripLights_Dim(uint32 dimLevel) 
 811:Generated_Source\PSoC4/StripLights.c **** {
 1152              		.loc 1 811 0
 1153              		.cfi_startproc
 1154              		@ args = 0, pretend = 0, frame = 0
 1155              		@ frame_needed = 0, uses_anonymous_args = 0
 1156              		@ link register save eliminated.
 1157              	.LVL128:
 812:Generated_Source\PSoC4/StripLights.c **** extern uint32  StripLights_DimMask;
 813:Generated_Source\PSoC4/StripLights.c **** extern uint32  StripLights_DimShift;
 814:Generated_Source\PSoC4/StripLights.c **** 
 815:Generated_Source\PSoC4/StripLights.c ****     switch(dimLevel)
 1158              		.loc 1 815 0
 1159 0000 0228     		cmp	r0, #2
 1160 0002 0FD0     		beq	.L73
 1161 0004 02D8     		bhi	.L74
 1162 0006 0128     		cmp	r0, #1
 1163 0008 05D0     		beq	.L75
 1164 000a 20E0     		b	.L72
 1165              	.L74:
ARM GAS  C:\Users\ADMIN\AppData\Local\Temp\cckytse1.s 			page 36


 1166 000c 0328     		cmp	r0, #3
 1167 000e 10D0     		beq	.L76
 1168 0010 0428     		cmp	r0, #4
 1169 0012 15D0     		beq	.L77
 1170 0014 1BE0     		b	.L72
 1171              	.L75:
 816:Generated_Source\PSoC4/StripLights.c ****     {
 817:Generated_Source\PSoC4/StripLights.c ****        case 1:  // 1/2 bright
 818:Generated_Source\PSoC4/StripLights.c ****            StripLights_DimMask = 0x007F7F7F;
 1172              		.loc 1 818 0
 1173 0016 114A     		ldr	r2, .L79
 1174 0018 114B     		ldr	r3, .L79+4
 1175 001a 1A60     		str	r2, [r3]
 819:Generated_Source\PSoC4/StripLights.c ****            StripLights_DimShift = 1;
 1176              		.loc 1 819 0
 1177 001c 0122     		movs	r2, #1
 1178 001e 114B     		ldr	r3, .L79+8
 1179 0020 1A60     		str	r2, [r3]
 820:Generated_Source\PSoC4/StripLights.c ****            break;
 1180              		.loc 1 820 0
 1181 0022 1AE0     		b	.L71
 1182              	.L73:
 821:Generated_Source\PSoC4/StripLights.c ****            
 822:Generated_Source\PSoC4/StripLights.c ****        case 2:
 823:Generated_Source\PSoC4/StripLights.c ****            StripLights_DimMask = 0x003F3F3F;
 1183              		.loc 1 823 0
 1184 0024 104A     		ldr	r2, .L79+12
 1185 0026 0E4B     		ldr	r3, .L79+4
 1186 0028 1A60     		str	r2, [r3]
 824:Generated_Source\PSoC4/StripLights.c ****            StripLights_DimShift = 2;
 1187              		.loc 1 824 0
 1188 002a 0222     		movs	r2, #2
 1189 002c 0D4B     		ldr	r3, .L79+8
 1190 002e 1A60     		str	r2, [r3]
 825:Generated_Source\PSoC4/StripLights.c ****            break;
 1191              		.loc 1 825 0
 1192 0030 13E0     		b	.L71
 1193              	.L76:
 826:Generated_Source\PSoC4/StripLights.c ****            
 827:Generated_Source\PSoC4/StripLights.c ****        case 3:
 828:Generated_Source\PSoC4/StripLights.c ****            StripLights_DimMask = 0x001F1F1F;
 1194              		.loc 1 828 0
 1195 0032 0E4A     		ldr	r2, .L79+16
 1196 0034 0A4B     		ldr	r3, .L79+4
 1197 0036 1A60     		str	r2, [r3]
 829:Generated_Source\PSoC4/StripLights.c ****            StripLights_DimShift = 3;
 1198              		.loc 1 829 0
 1199 0038 0322     		movs	r2, #3
 1200 003a 0A4B     		ldr	r3, .L79+8
 1201 003c 1A60     		str	r2, [r3]
 830:Generated_Source\PSoC4/StripLights.c ****            break;
 1202              		.loc 1 830 0
 1203 003e 0CE0     		b	.L71
 1204              	.L77:
 831:Generated_Source\PSoC4/StripLights.c ****            
 832:Generated_Source\PSoC4/StripLights.c ****        case 4:
 833:Generated_Source\PSoC4/StripLights.c ****            StripLights_DimMask = 0x000F0F0F;
ARM GAS  C:\Users\ADMIN\AppData\Local\Temp\cckytse1.s 			page 37


 1205              		.loc 1 833 0
 1206 0040 0B4A     		ldr	r2, .L79+20
 1207 0042 074B     		ldr	r3, .L79+4
 1208 0044 1A60     		str	r2, [r3]
 834:Generated_Source\PSoC4/StripLights.c ****            StripLights_DimShift = 4;
 1209              		.loc 1 834 0
 1210 0046 0422     		movs	r2, #4
 1211 0048 064B     		ldr	r3, .L79+8
 1212 004a 1A60     		str	r2, [r3]
 835:Generated_Source\PSoC4/StripLights.c ****            break;
 1213              		.loc 1 835 0
 1214 004c 05E0     		b	.L71
 1215              	.L72:
 836:Generated_Source\PSoC4/StripLights.c ****            
 837:Generated_Source\PSoC4/StripLights.c ****        default:
 838:Generated_Source\PSoC4/StripLights.c ****            StripLights_DimMask = 0x00FFFFFF;
 1216              		.loc 1 838 0
 1217 004e 094A     		ldr	r2, .L79+24
 1218 0050 034B     		ldr	r3, .L79+4
 1219 0052 1A60     		str	r2, [r3]
 839:Generated_Source\PSoC4/StripLights.c ****            StripLights_DimShift = 0;
 1220              		.loc 1 839 0
 1221 0054 0022     		movs	r2, #0
 1222 0056 034B     		ldr	r3, .L79+8
 1223 0058 1A60     		str	r2, [r3]
 1224              	.L71:
 840:Generated_Source\PSoC4/StripLights.c ****            break;
 841:Generated_Source\PSoC4/StripLights.c ****         
 842:Generated_Source\PSoC4/StripLights.c ****     }
 843:Generated_Source\PSoC4/StripLights.c **** }
 1225              		.loc 1 843 0
 1226              		@ sp needed
 1227 005a 7047     		bx	lr
 1228              	.L80:
 1229              		.align	2
 1230              	.L79:
 1231 005c 7F7F7F00 		.word	8355711
 1232 0060 00000000 		.word	StripLights_DimMask
 1233 0064 00000000 		.word	StripLights_DimShift
 1234 0068 3F3F3F00 		.word	4144959
 1235 006c 1F1F1F00 		.word	2039583
 1236 0070 0F0F0F00 		.word	986895
 1237 0074 FFFFFF00 		.word	16777215
 1238              		.cfi_endproc
 1239              	.LFE47:
 1240              		.size	StripLights_Dim, .-StripLights_Dim
 1241              		.section	.text.StripLights_Start,"ax",%progbits
 1242              		.align	2
 1243              		.global	StripLights_Start
 1244              		.code	16
 1245              		.thumb_func
 1246              		.type	StripLights_Start, %function
 1247              	StripLights_Start:
 1248              	.LFB32:
 207:Generated_Source\PSoC4/StripLights.c ****     extern uint8 StripLights_initvar;
 1249              		.loc 1 207 0
 1250              		.cfi_startproc
ARM GAS  C:\Users\ADMIN\AppData\Local\Temp\cckytse1.s 			page 38


 1251              		@ args = 0, pretend = 0, frame = 0
 1252              		@ frame_needed = 0, uses_anonymous_args = 0
 1253 0000 10B5     		push	{r4, lr}
 1254              		.cfi_def_cfa_offset 8
 1255              		.cfi_offset 4, -8
 1256              		.cfi_offset 14, -4
 211:Generated_Source\PSoC4/StripLights.c ****     
 1257              		.loc 1 211 0
 1258 0002 0322     		movs	r2, #3
 1259 0004 124B     		ldr	r3, .L83
 1260 0006 1A70     		strb	r2, [r3]
 213:Generated_Source\PSoC4/StripLights.c ****     StripLights_Compare0 = StripLights_DATA_ZERO;
 1261              		.loc 1 213 0
 1262 0008 1A32     		adds	r2, r2, #26
 1263 000a 124B     		ldr	r3, .L83+4
 1264 000c 1A70     		strb	r2, [r3]
 214:Generated_Source\PSoC4/StripLights.c ****     StripLights_Compare1 = StripLights_DATA_ONE;
 1265              		.loc 1 214 0
 1266 000e 053A     		subs	r2, r2, #5
 1267 0010 114B     		ldr	r3, .L83+8
 1268 0012 1A70     		strb	r2, [r3]
 215:Generated_Source\PSoC4/StripLights.c ****     
 1269              		.loc 1 215 0
 1270 0014 0A3A     		subs	r2, r2, #10
 1271 0016 114B     		ldr	r3, .L83+12
 1272 0018 1A70     		strb	r2, [r3]
 217:Generated_Source\PSoC4/StripLights.c ****     StripLights_MemClear(StripLights_OFF);
 1273              		.loc 1 217 0
 1274 001a 114C     		ldr	r4, .L83+16
 1275 001c 0123     		movs	r3, #1
 1276 001e 2370     		strb	r3, [r4]
 218:Generated_Source\PSoC4/StripLights.c ****     StripLights_CONTROL = StripLights_DISABLE;
 1277              		.loc 1 218 0
 1278 0020 1820     		movs	r0, #24
 1279 0022 FFF7FEFF 		bl	StripLights_MemClear
 1280              	.LVL129:
 219:Generated_Source\PSoC4/StripLights.c ****     
 1281              		.loc 1 219 0
 1282 0026 0023     		movs	r3, #0
 1283 0028 2370     		strb	r3, [r4]
 221:Generated_Source\PSoC4/StripLights.c ****     
 1284              		.loc 1 221 0
 1285 002a 0020     		movs	r0, #0
 1286 002c FFF7FEFF 		bl	StripLights_SetFont
 1287              	.LVL130:
 224:Generated_Source\PSoC4/StripLights.c **** 
 1288              		.loc 1 224 0
 1289 0030 0020     		movs	r0, #0
 1290 0032 FFF7FEFF 		bl	StripLights_Dim
 1291              	.LVL131:
 227:Generated_Source\PSoC4/StripLights.c ****     {
 1292              		.loc 1 227 0
 1293 0036 0B4B     		ldr	r3, .L83+20
 1294 0038 1B7D     		ldrb	r3, [r3, #20]
 1295 003a 002B     		cmp	r3, #0
 1296 003c 03D1     		bne	.L82
 230:Generated_Source\PSoC4/StripLights.c ****  
ARM GAS  C:\Users\ADMIN\AppData\Local\Temp\cckytse1.s 			page 39


 1297              		.loc 1 230 0
 1298 003e 0133     		adds	r3, r3, #1
 1299 0040 084A     		ldr	r2, .L83+20
 1300 0042 1375     		strb	r3, [r2, #20]
 242:Generated_Source\PSoC4/StripLights.c ****        }
 1301              		.loc 1 242 0
 1302 0044 2370     		strb	r3, [r4]
 1303              	.L82:
 245:Generated_Source\PSoC4/StripLights.c **** }
 1304              		.loc 1 245 0
 1305 0046 0122     		movs	r2, #1
 1306 0048 074B     		ldr	r3, .L83+24
 1307 004a 1A60     		str	r2, [r3]
 246:Generated_Source\PSoC4/StripLights.c **** 
 1308              		.loc 1 246 0
 1309              		@ sp needed
 1310 004c 10BD     		pop	{r4, pc}
 1311              	.L84:
 1312 004e C046     		.align	2
 1313              	.L83:
 1314 0050 93000F40 		.word	1074725011
 1315 0054 43000F40 		.word	1074724931
 1316 0058 23000F40 		.word	1074724899
 1317 005c 33000F40 		.word	1074724915
 1318 0060 70000F40 		.word	1074724976
 1319 0064 00000000 		.word	.LANCHOR0
 1320 0068 00000000 		.word	StripLights_refreshComplete
 1321              		.cfi_endproc
 1322              	.LFE32:
 1323              		.size	StripLights_Start, .-StripLights_Start
 1324              		.section	.text.StripLights_bplot,"ax",%progbits
 1325              		.align	2
 1326              		.global	StripLights_bplot
 1327              		.code	16
 1328              		.thumb_func
 1329              		.type	StripLights_bplot, %function
 1330              	StripLights_bplot:
 1331              	.LFB48:
 844:Generated_Source\PSoC4/StripLights.c **** 
 845:Generated_Source\PSoC4/StripLights.c **** void StripLights_bplot( int32 x, int32 y, uint8 * bitMap, int32 update)
 846:Generated_Source\PSoC4/StripLights.c **** {
 1332              		.loc 1 846 0
 1333              		.cfi_startproc
 1334              		@ args = 0, pretend = 0, frame = 8
 1335              		@ frame_needed = 0, uses_anonymous_args = 0
 1336              	.LVL132:
 1337 0000 F0B5     		push	{r4, r5, r6, r7, lr}
 1338              		.cfi_def_cfa_offset 20
 1339              		.cfi_offset 4, -20
 1340              		.cfi_offset 5, -16
 1341              		.cfi_offset 6, -12
 1342              		.cfi_offset 7, -8
 1343              		.cfi_offset 14, -4
 1344 0002 5F46     		mov	r7, fp
 1345 0004 4646     		mov	r6, r8
 1346 0006 C0B4     		push	{r6, r7}
 1347              		.cfi_def_cfa_offset 28
ARM GAS  C:\Users\ADMIN\AppData\Local\Temp\cckytse1.s 			page 40


 1348              		.cfi_offset 8, -28
 1349              		.cfi_offset 11, -24
 1350 0008 83B0     		sub	sp, sp, #12
 1351              		.cfi_def_cfa_offset 40
 1352 000a 0190     		str	r0, [sp, #4]
 1353 000c 0091     		str	r1, [sp]
 1354 000e 1700     		movs	r7, r2
 1355 0010 9B46     		mov	fp, r3
 1356              	.LVL133:
 847:Generated_Source\PSoC4/StripLights.c ****     int32 dx, dy;
 848:Generated_Source\PSoC4/StripLights.c ****     int32 aindex = 0;
 849:Generated_Source\PSoC4/StripLights.c ****     int32 maxX, maxY;
 850:Generated_Source\PSoC4/StripLights.c **** 
 851:Generated_Source\PSoC4/StripLights.c ****     maxX = x + (int32)bitMap[aindex++];
 1357              		.loc 1 851 0
 1358 0012 1378     		ldrb	r3, [r2]
 1359              	.LVL134:
 1360 0014 1E18     		adds	r6, r3, r0
 1361              	.LVL135:
 852:Generated_Source\PSoC4/StripLights.c ****     maxY = y  + (int32)bitMap[aindex++];
 1362              		.loc 1 852 0
 1363 0016 7B78     		ldrb	r3, [r7, #1]
 1364 0018 8846     		mov	r8, r1
 1365 001a 9844     		add	r8, r8, r3
 1366              	.LVL136:
 1367 001c 0223     		movs	r3, #2
 853:Generated_Source\PSoC4/StripLights.c **** 
 854:Generated_Source\PSoC4/StripLights.c **** 	for(dy = y; dy < maxY; dy++)
 1368              		.loc 1 854 0
 1369 001e 0EE0     		b	.L86
 1370              	.LVL137:
 1371              	.L87:
 855:Generated_Source\PSoC4/StripLights.c ****     {
 856:Generated_Source\PSoC4/StripLights.c **** 		for(dx = x; dx < maxX; dx++)
 857:Generated_Source\PSoC4/StripLights.c ****         {
 858:Generated_Source\PSoC4/StripLights.c ****             StripLights_Pixel(dx, dy, bitMap[aindex++]);
 1372              		.loc 1 858 0 discriminator 3
 1373 0020 5D1C     		adds	r5, r3, #1
 1374              	.LVL138:
 1375 0022 FA5C     		ldrb	r2, [r7, r3]
 1376 0024 0099     		ldr	r1, [sp]
 1377 0026 2000     		movs	r0, r4
 1378 0028 FFF7FEFF 		bl	StripLights_Pixel
 1379              	.LVL139:
 856:Generated_Source\PSoC4/StripLights.c ****         {
 1380              		.loc 1 856 0 discriminator 3
 1381 002c 0134     		adds	r4, r4, #1
 1382              	.LVL140:
 1383              		.loc 1 858 0 discriminator 3
 1384 002e 2B00     		movs	r3, r5
 1385 0030 00E0     		b	.L88
 1386              	.LVL141:
 1387              	.L90:
 1388 0032 019C     		ldr	r4, [sp, #4]
 1389              	.LVL142:
 1390              	.L88:
 856:Generated_Source\PSoC4/StripLights.c ****         {
ARM GAS  C:\Users\ADMIN\AppData\Local\Temp\cckytse1.s 			page 41


 1391              		.loc 1 856 0 discriminator 1
 1392 0034 B442     		cmp	r4, r6
 1393 0036 F3DB     		blt	.L87
 854:Generated_Source\PSoC4/StripLights.c ****     {
 1394              		.loc 1 854 0 discriminator 2
 1395 0038 009A     		ldr	r2, [sp]
 1396 003a 0132     		adds	r2, r2, #1
 1397 003c 0092     		str	r2, [sp]
 1398              	.LVL143:
 1399              	.L86:
 854:Generated_Source\PSoC4/StripLights.c ****     {
 1400              		.loc 1 854 0 is_stmt 0 discriminator 1
 1401 003e 009A     		ldr	r2, [sp]
 1402 0040 4245     		cmp	r2, r8
 1403 0042 F6DB     		blt	.L90
 859:Generated_Source\PSoC4/StripLights.c ****         }
 860:Generated_Source\PSoC4/StripLights.c ****     }
 861:Generated_Source\PSoC4/StripLights.c **** 	if(update) StripLights_Trigger(1);
 1404              		.loc 1 861 0 is_stmt 1
 1405 0044 5B46     		mov	r3, fp
 1406              	.LVL144:
 1407 0046 002B     		cmp	r3, #0
 1408 0048 02D0     		beq	.L85
 1409              	.LVL145:
 1410              		.loc 1 861 0 is_stmt 0 discriminator 1
 1411 004a 0120     		movs	r0, #1
 1412 004c FFF7FEFF 		bl	StripLights_Trigger
 1413              	.LVL146:
 1414              	.L85:
 862:Generated_Source\PSoC4/StripLights.c **** }
 1415              		.loc 1 862 0 is_stmt 1
 1416 0050 03B0     		add	sp, sp, #12
 1417              	.LVL147:
 1418              		@ sp needed
 1419              	.LVL148:
 1420              	.LVL149:
 1421              	.LVL150:
 1422              	.LVL151:
 1423 0052 0CBC     		pop	{r2, r3}
 1424 0054 9046     		mov	r8, r2
 1425 0056 9B46     		mov	fp, r3
 1426 0058 F0BD     		pop	{r4, r5, r6, r7, pc}
 1427              		.cfi_endproc
 1428              	.LFE48:
 1429              		.size	StripLights_bplot, .-StripLights_bplot
 1430              		.global	StripLights_CLUT
 1431              		.comm	StripLights_Channel,1,1
 1432              		.comm	StripLights_DimShift,4,4
 1433              		.comm	StripLights_DimMask,4,4
 1434              		.comm	StripLights_refreshComplete,4,4
 1435              		.global	StripLights_row
 1436              		.global	StripLights_ledIndex
 1437              		.comm	StripLights_ledArray,60,4
 1438              		.global	StripLights_initvar
 1439 005a C046     		.section	.rodata
 1440              		.align	2
 1441              		.set	.LANCHOR1,. + 0
ARM GAS  C:\Users\ADMIN\AppData\Local\Temp\cckytse1.s 			page 42


 1442              		.type	StripLights_CLUT, %object
 1443              		.size	StripLights_CLUT, 480
 1444              	StripLights_CLUT:
 1445 0000 FFFF0000 		.word	65535
 1446 0004 FFCC0000 		.word	52479
 1447 0008 FF990000 		.word	39423
 1448 000c FF330000 		.word	13311
 1449 0010 FF000000 		.word	255
 1450 0014 B3006600 		.word	6684851
 1451 0018 99009900 		.word	10027161
 1452 001c 6600B300 		.word	11731046
 1453 0020 3300CC00 		.word	13369395
 1454 0024 1919B300 		.word	11737369
 1455 0028 00339900 		.word	10040064
 1456 002c 00409900 		.word	10043392
 1457 0030 00669900 		.word	10053120
 1458 0034 00999900 		.word	10066176
 1459 0038 00CC9900 		.word	10079232
 1460 003c 00E66600 		.word	6743552
 1461 0040 00FF0000 		.word	65280
 1462 0044 33FF0000 		.word	65331
 1463 0048 66FF0000 		.word	65382
 1464 004c 80FF0000 		.word	65408
 1465 0050 99FF0000 		.word	65433
 1466 0054 B2FF0000 		.word	65458
 1467 0058 CCFF0000 		.word	65484
 1468 005c E5FF0000 		.word	65509
 1469 0060 00000000 		.word	0
 1470 0064 00005500 		.word	5570560
 1471 0068 0000AA00 		.word	11141120
 1472 006c 0000FF00 		.word	16711680
 1473 0070 55000000 		.word	85
 1474 0074 55005500 		.word	5570645
 1475 0078 5500AA00 		.word	11141205
 1476 007c 5500FF00 		.word	16711765
 1477 0080 AA000000 		.word	170
 1478 0084 AA005500 		.word	5570730
 1479 0088 AA00AA00 		.word	11141290
 1480 008c AA00FF00 		.word	16711850
 1481 0090 FF000000 		.word	255
 1482 0094 FF005500 		.word	5570815
 1483 0098 FF00AA00 		.word	11141375
 1484 009c FF00FF00 		.word	16711935
 1485 00a0 00550000 		.word	21760
 1486 00a4 00555500 		.word	5592320
 1487 00a8 0055AA00 		.word	11162880
 1488 00ac 0055FF00 		.word	16733440
 1489 00b0 55550000 		.word	21845
 1490 00b4 55555500 		.word	5592405
 1491 00b8 5555AA00 		.word	11162965
 1492 00bc 5555FF00 		.word	16733525
 1493 00c0 AA550000 		.word	21930
 1494 00c4 AA555500 		.word	5592490
 1495 00c8 AA55AA00 		.word	11163050
 1496 00cc AA55FF00 		.word	16733610
 1497 00d0 FF550000 		.word	22015
 1498 00d4 FF555500 		.word	5592575
ARM GAS  C:\Users\ADMIN\AppData\Local\Temp\cckytse1.s 			page 43


 1499 00d8 FF55AA00 		.word	11163135
 1500 00dc FF55FF00 		.word	16733695
 1501 00e0 00AA0000 		.word	43520
 1502 00e4 00AA5500 		.word	5614080
 1503 00e8 00AAAA00 		.word	11184640
 1504 00ec 00AAFF00 		.word	16755200
 1505 00f0 55AA0000 		.word	43605
 1506 00f4 55AA5500 		.word	5614165
 1507 00f8 55AAAA00 		.word	11184725
 1508 00fc 55AAFF00 		.word	16755285
 1509 0100 AAAA0000 		.word	43690
 1510 0104 AAAA5500 		.word	5614250
 1511 0108 AAAAAA00 		.word	11184810
 1512 010c AAAAFF00 		.word	16755370
 1513 0110 FFAA0000 		.word	43775
 1514 0114 FFAA5500 		.word	5614335
 1515 0118 FFAAAA00 		.word	11184895
 1516 011c FFAAFF00 		.word	16755455
 1517 0120 00FF0000 		.word	65280
 1518 0124 00FF5500 		.word	5635840
 1519 0128 00FFAA00 		.word	11206400
 1520 012c 00FFFF00 		.word	16776960
 1521 0130 55FF0000 		.word	65365
 1522 0134 55FF5500 		.word	5635925
 1523 0138 55FFAA00 		.word	11206485
 1524 013c 55FFFF00 		.word	16777045
 1525 0140 AAFF0000 		.word	65450
 1526 0144 AAFF5500 		.word	5636010
 1527 0148 AAFFAA00 		.word	11206570
 1528 014c AAFFFF00 		.word	16777130
 1529 0150 FFFF0000 		.word	65535
 1530 0154 FFFF5500 		.word	5636095
 1531 0158 FFFFAA00 		.word	11206655
 1532 015c FFFFFF00 		.word	16777215
 1533 0160 FF800000 		.word	33023
 1534 0164 FF008000 		.word	8388863
 1535 0168 FF00FF00 		.word	16711935
 1536 016c 8000FF00 		.word	16711808
 1537 0170 0080FF00 		.word	16744448
 1538 0174 00FF8000 		.word	8453888
 1539 0178 FF000000 		.word	255
 1540 017c 20202000 		.word	2105376
 1541 0180 00002000 		.word	2097152
 1542 0184 00000010 		.word	268435456
 1543 0188 00000000 		.word	0
 1544 018c 00000000 		.word	0
 1545 0190 00000000 		.word	0
 1546 0194 00000000 		.word	0
 1547 0198 00000000 		.word	0
 1548 019c 00000000 		.word	0
 1549 01a0 0000FF00 		.word	16711680
 1550 01a4 0010F000 		.word	15732736
 1551 01a8 0020E000 		.word	14688256
 1552 01ac 0030D000 		.word	13643776
 1553 01b0 0040C000 		.word	12599296
 1554 01b4 0050B000 		.word	11554816
 1555 01b8 0060A000 		.word	10510336
ARM GAS  C:\Users\ADMIN\AppData\Local\Temp\cckytse1.s 			page 44


 1556 01bc 00709000 		.word	9465856
 1557 01c0 00808000 		.word	8421376
 1558 01c4 00907000 		.word	7376896
 1559 01c8 00A06000 		.word	6332416
 1560 01cc 00B05000 		.word	5287936
 1561 01d0 00C04000 		.word	4243456
 1562 01d4 00D03000 		.word	3198976
 1563 01d8 00E02000 		.word	2154496
 1564 01dc 00FF0000 		.word	65280
 1565              		.bss
 1566              		.align	2
 1567              		.set	.LANCHOR0,. + 0
 1568              		.type	StripLights_row, %object
 1569              		.size	StripLights_row, 4
 1570              	StripLights_row:
 1571 0000 00000000 		.space	4
 1572              		.type	StripLights_ledIndex, %object
 1573              		.size	StripLights_ledIndex, 4
 1574              	StripLights_ledIndex:
 1575 0004 00000000 		.space	4
 1576              		.type	colorIndex.6455, %object
 1577              		.size	colorIndex.6455, 4
 1578              	colorIndex.6455:
 1579 0008 00000000 		.space	4
 1580              		.type	color.6462, %object
 1581              		.size	color.6462, 4
 1582              	color.6462:
 1583 000c 00000000 		.space	4
 1584              		.type	color.6470, %object
 1585              		.size	color.6470, 4
 1586              	color.6470:
 1587 0010 00000000 		.space	4
 1588              		.type	StripLights_initvar, %object
 1589              		.size	StripLights_initvar, 1
 1590              	StripLights_initvar:
 1591 0014 00       		.space	1
 1592              		.text
 1593              	.Letext0:
 1594              		.file 2 "Generated_Source\\PSoC4/cytypes.h"
 1595              		.file 3 "Generated_Source\\PSoC4\\StripLights_fonts.h"