ARM GAS  C:\Users\ADMIN\AppData\Local\Temp\ccPTxmye.s 			page 1


   1              		.syntax unified
   2              		.cpu cortex-m0
   3              		.fpu softvfp
   4              		.eabi_attribute 20, 1
   5              		.eabi_attribute 21, 1
   6              		.eabi_attribute 23, 3
   7              		.eabi_attribute 24, 1
   8              		.eabi_attribute 25, 1
   9              		.eabi_attribute 26, 1
  10              		.eabi_attribute 30, 1
  11              		.eabi_attribute 34, 0
  12              		.eabi_attribute 18, 4
  13              		.thumb
  14              		.syntax unified
  15              		.file	"gates.c"
  16              		.text
  17              	.Ltext0:
  18              		.cfi_sections	.debug_frame
  19              		.section	.text.RunMotors45Degrees,"ax",%progbits
  20              		.align	2
  21              		.global	RunMotors45Degrees
  22              		.code	16
  23              		.thumb_func
  24              		.type	RunMotors45Degrees, %function
  25              	RunMotors45Degrees:
  26              	.LFB33:
  27              		.file 1 "gates.c"
   1:gates.c       **** #include "gates.h"
   2:gates.c       **** 
   3:gates.c       **** //function for running needed drivers
   4:gates.c       **** //EXAMPLE: if we want to run the third driver, arguments will be 0,0,1
   5:gates.c       **** //argument that equals to 0 means not to run this driver, 1 means to run
   6:gates.c       **** void RunMotors45Degrees(bool direction, struct motors gates){
  28              		.loc 1 6 0
  29              		.cfi_startproc
  30              		@ args = 0, pretend = 0, frame = 8
  31              		@ frame_needed = 0, uses_anonymous_args = 0
  32              	.LVL0:
  33 0000 30B5     		push	{r4, r5, lr}
  34              		.cfi_def_cfa_offset 12
  35              		.cfi_offset 4, -12
  36              		.cfi_offset 5, -8
  37              		.cfi_offset 14, -4
  38 0002 83B0     		sub	sp, sp, #12
  39              		.cfi_def_cfa_offset 24
  40 0004 0500     		movs	r5, r0
  41 0006 01AC     		add	r4, sp, #4
  42 0008 0191     		str	r1, [sp, #4]
   7:gates.c       ****     
   8:gates.c       ****     //set direction
   9:gates.c       ****     Dir_1_Write(direction);
  43              		.loc 1 9 0
  44 000a FFF7FEFF 		bl	Dir_1_Write
  45              	.LVL1:
  10:gates.c       ****     Dir_2_5_Write(direction);
  46              		.loc 1 10 0
  47 000e 2800     		movs	r0, r5
ARM GAS  C:\Users\ADMIN\AppData\Local\Temp\ccPTxmye.s 			page 2


  48 0010 FFF7FEFF 		bl	Dir_2_5_Write
  49              	.LVL2:
  11:gates.c       ****     Dir_3_4_Write(direction);
  50              		.loc 1 11 0
  51 0014 2800     		movs	r0, r5
  52 0016 FFF7FEFF 		bl	Dir_3_4_Write
  53              	.LVL3:
  12:gates.c       ****     
  13:gates.c       ****     //count value of counter to run needed motors
  14:gates.c       ****     uint8_t val = 0b000;
  15:gates.c       ****     val = val | gates.motor_1 | (gates.motor_2_5 << 1) | (gates.motor_3_4 << 2);
  54              		.loc 1 15 0
  55 001a 2278     		ldrb	r2, [r4]
  56 001c 6078     		ldrb	r0, [r4, #1]
  57 001e 4000     		lsls	r0, r0, #1
  58 0020 A378     		ldrb	r3, [r4, #2]
  59 0022 9B00     		lsls	r3, r3, #2
  60 0024 1043     		orrs	r0, r2
  61 0026 1843     		orrs	r0, r3
  62 0028 C0B2     		uxtb	r0, r0
  63              	.LVL4:
  16:gates.c       ****     
  17:gates.c       ****     Control_Reg_2_Write(val);
  64              		.loc 1 17 0
  65 002a FFF7FEFF 		bl	Control_Reg_2_Write
  66              	.LVL5:
  18:gates.c       ****     
  19:gates.c       ****     Control_Reg_1_Write(true);
  67              		.loc 1 19 0
  68 002e 0120     		movs	r0, #1
  69 0030 FFF7FEFF 		bl	Control_Reg_1_Write
  70              	.LVL6:
  71              	.L2:
  20:gates.c       ****     
  21:gates.c       ****     while (Status_Reg_1_Read() != true);
  72              		.loc 1 21 0 discriminator 1
  73 0034 FFF7FEFF 		bl	Status_Reg_1_Read
  74              	.LVL7:
  75 0038 0128     		cmp	r0, #1
  76 003a FBD1     		bne	.L2
  22:gates.c       ****     
  23:gates.c       ****     Control_Reg_1_Write(false);
  77              		.loc 1 23 0
  78 003c 0020     		movs	r0, #0
  79 003e FFF7FEFF 		bl	Control_Reg_1_Write
  80              	.LVL8:
  81              	.L3:
  24:gates.c       ****     
  25:gates.c       ****     while (Status_Reg_1_Read() != false);
  82              		.loc 1 25 0 discriminator 1
  83 0042 FFF7FEFF 		bl	Status_Reg_1_Read
  84              	.LVL9:
  85 0046 0028     		cmp	r0, #0
  86 0048 FBD1     		bne	.L3
  26:gates.c       **** }
  87              		.loc 1 26 0
  88 004a 03B0     		add	sp, sp, #12
ARM GAS  C:\Users\ADMIN\AppData\Local\Temp\ccPTxmye.s 			page 3


  89              		@ sp needed
  90 004c 30BD     		pop	{r4, r5, pc}
  91              		.cfi_endproc
  92              	.LFE33:
  93              		.size	RunMotors45Degrees, .-RunMotors45Degrees
  94 004e C046     		.section	.text.OpenCloseGates,"ax",%progbits
  95              		.align	2
  96              		.global	OpenCloseGates
  97              		.code	16
  98              		.thumb_func
  99              		.type	OpenCloseGates, %function
 100              	OpenCloseGates:
 101              	.LFB34:
  27:gates.c       **** 
  28:gates.c       **** void OpenCloseGates(struct motors gates){
 102              		.loc 1 28 0
 103              		.cfi_startproc
 104              		@ args = 0, pretend = 0, frame = 8
 105              		@ frame_needed = 0, uses_anonymous_args = 0
 106 0000 00B5     		push	{lr}
 107              		.cfi_def_cfa_offset 4
 108              		.cfi_offset 14, -4
 109 0002 83B0     		sub	sp, sp, #12
 110              		.cfi_def_cfa_offset 16
 111 0004 0100     		movs	r1, r0
 112 0006 0190     		str	r0, [sp, #4]
  29:gates.c       ****     
  30:gates.c       ****     //run needed motors 45 degrees clockwise
  31:gates.c       ****     RunMotors45Degrees(CCW, gates);
 113              		.loc 1 31 0
 114 0008 0120     		movs	r0, #1
 115 000a FFF7FEFF 		bl	RunMotors45Degrees
 116              	.LVL10:
  32:gates.c       ****     CyDelay(190);
 117              		.loc 1 32 0
 118 000e BE20     		movs	r0, #190
 119 0010 FFF7FEFF 		bl	CyDelay
 120              	.LVL11:
  33:gates.c       ****     
  34:gates.c       ****     PWM_Container_Stop();
 121              		.loc 1 34 0
 122 0014 FFF7FEFF 		bl	PWM_Container_Stop
 123              	.LVL12:
  35:gates.c       ****     CyDelay(DELAY_STOP_AFTER_OPEN);
 124              		.loc 1 35 0
 125 0018 0648     		ldr	r0, .L5
 126 001a FFF7FEFF 		bl	CyDelay
 127              	.LVL13:
  36:gates.c       ****     
  37:gates.c       ****     //run needed motors 45 degrees counterclockwise
  38:gates.c       ****     RunMotors45Degrees(CW, gates);
 128              		.loc 1 38 0
 129 001e 0199     		ldr	r1, [sp, #4]
 130 0020 0020     		movs	r0, #0
 131 0022 FFF7FEFF 		bl	RunMotors45Degrees
 132              	.LVL14:
  39:gates.c       ****     
ARM GAS  C:\Users\ADMIN\AppData\Local\Temp\ccPTxmye.s 			page 4


  40:gates.c       ****     CyDelay(DELAY_STOP_AFTER_CLOSE);
 133              		.loc 1 40 0
 134 0026 0A20     		movs	r0, #10
 135 0028 FFF7FEFF 		bl	CyDelay
 136              	.LVL15:
  41:gates.c       ****     PWM_Container_Start();
 137              		.loc 1 41 0
 138 002c FFF7FEFF 		bl	PWM_Container_Start
 139              	.LVL16:
  42:gates.c       **** }
 140              		.loc 1 42 0
 141 0030 03B0     		add	sp, sp, #12
 142              		@ sp needed
 143 0032 00BD     		pop	{pc}
 144              	.L6:
 145              		.align	2
 146              	.L5:
 147 0034 26020000 		.word	550
 148              		.cfi_endproc
 149              	.LFE34:
 150              		.size	OpenCloseGates, .-OpenCloseGates
 151              		.section	.text.OpenCloseTestGates,"ax",%progbits
 152              		.align	2
 153              		.global	OpenCloseTestGates
 154              		.code	16
 155              		.thumb_func
 156              		.type	OpenCloseTestGates, %function
 157              	OpenCloseTestGates:
 158              	.LFB35:
  43:gates.c       **** 
  44:gates.c       **** void OpenCloseTestGates(int count_settings, bool open){
 159              		.loc 1 44 0
 160              		.cfi_startproc
 161              		@ args = 0, pretend = 0, frame = 8
 162              		@ frame_needed = 0, uses_anonymous_args = 0
 163              	.LVL17:
 164 0000 10B5     		push	{r4, lr}
 165              		.cfi_def_cfa_offset 8
 166              		.cfi_offset 4, -8
 167              		.cfi_offset 14, -4
 168 0002 82B0     		sub	sp, sp, #8
 169              		.cfi_def_cfa_offset 16
 170 0004 0C00     		movs	r4, r1
  45:gates.c       ****     struct motors gates;
  46:gates.c       ****     
  47:gates.c       ****     switch (count_settings){
 171              		.loc 1 47 0
 172 0006 0628     		cmp	r0, #6
 173 0008 2AD8     		bhi	.L8
 174 000a 8000     		lsls	r0, r0, #2
 175              	.LVL18:
 176 000c 1B4B     		ldr	r3, .L18
 177 000e 1B58     		ldr	r3, [r3, r0]
 178 0010 9F46     		mov	pc, r3
 179              		.section	.rodata
 180              		.align	2
 181              	.L10:
ARM GAS  C:\Users\ADMIN\AppData\Local\Temp\ccPTxmye.s 			page 5


 182 0000 60000000 		.word	.L8
 183 0004 12000000 		.word	.L9
 184 0008 2C000000 		.word	.L11
 185 000c 1E000000 		.word	.L12
 186 0010 3A000000 		.word	.L13
 187 0014 46000000 		.word	.L14
 188 0018 54000000 		.word	.L15
 189              		.section	.text.OpenCloseTestGates
 190              	.L9:
  48:gates.c       ****         case RED:
  49:gates.c       ****             gates = (struct motors){0, 0, 0};
 191              		.loc 1 49 0
 192 0012 01AB     		add	r3, sp, #4
 193 0014 0022     		movs	r2, #0
 194 0016 1A70     		strb	r2, [r3]
 195 0018 5A70     		strb	r2, [r3, #1]
 196 001a 9A70     		strb	r2, [r3, #2]
  50:gates.c       ****             break;
 197              		.loc 1 50 0
 198 001c 20E0     		b	.L8
 199              	.L12:
  51:gates.c       ****         case ORANGE:
  52:gates.c       ****             gates = (struct motors){0, 0, 1};
 200              		.loc 1 52 0
 201 001e 01AB     		add	r3, sp, #4
 202 0020 0022     		movs	r2, #0
 203 0022 1A70     		strb	r2, [r3]
 204 0024 5A70     		strb	r2, [r3, #1]
 205 0026 0132     		adds	r2, r2, #1
 206 0028 9A70     		strb	r2, [r3, #2]
  53:gates.c       ****             break;
 207              		.loc 1 53 0
 208 002a 19E0     		b	.L8
 209              	.L11:
  54:gates.c       ****         case YELLOW:
  55:gates.c       ****             gates = (struct motors){0, 1, 0};
 210              		.loc 1 55 0
 211 002c 01AB     		add	r3, sp, #4
 212 002e 0022     		movs	r2, #0
 213 0030 1A70     		strb	r2, [r3]
 214 0032 0121     		movs	r1, #1
 215              	.LVL19:
 216 0034 5970     		strb	r1, [r3, #1]
 217 0036 9A70     		strb	r2, [r3, #2]
  56:gates.c       ****             break;
 218              		.loc 1 56 0
 219 0038 12E0     		b	.L8
 220              	.LVL20:
 221              	.L13:
  57:gates.c       ****         case GREEN:
  58:gates.c       ****             gates = (struct motors){0, 1, 1};
 222              		.loc 1 58 0
 223 003a 0322     		movs	r2, #3
 224 003c 1049     		ldr	r1, .L18+4
 225              	.LVL21:
 226 003e 01A8     		add	r0, sp, #4
 227 0040 FFF7FEFF 		bl	memcpy
ARM GAS  C:\Users\ADMIN\AppData\Local\Temp\ccPTxmye.s 			page 6


 228              	.LVL22:
  59:gates.c       ****             break;
 229              		.loc 1 59 0
 230 0044 0CE0     		b	.L8
 231              	.LVL23:
 232              	.L14:
  60:gates.c       ****         case BLUE:
  61:gates.c       ****             gates = (struct motors){1, 0, 0};
 233              		.loc 1 61 0
 234 0046 01AB     		add	r3, sp, #4
 235 0048 0122     		movs	r2, #1
 236 004a 1A70     		strb	r2, [r3]
 237 004c 0022     		movs	r2, #0
 238 004e 5A70     		strb	r2, [r3, #1]
 239 0050 9A70     		strb	r2, [r3, #2]
  62:gates.c       ****             break;
 240              		.loc 1 62 0
 241 0052 05E0     		b	.L8
 242              	.L15:
  63:gates.c       ****         case BROWN:
  64:gates.c       ****             gates = (struct motors){1, 0, 1};
 243              		.loc 1 64 0
 244 0054 0322     		movs	r2, #3
 245 0056 0A49     		ldr	r1, .L18+4
 246              	.LVL24:
 247 0058 0431     		adds	r1, r1, #4
 248 005a 01A8     		add	r0, sp, #4
 249 005c FFF7FEFF 		bl	memcpy
 250              	.LVL25:
 251              	.L8:
  65:gates.c       ****             break;
  66:gates.c       ****     }
  67:gates.c       ****     if (open){
 252              		.loc 1 67 0
 253 0060 002C     		cmp	r4, #0
 254 0062 04D0     		beq	.L16
  68:gates.c       ****         RunMotors45Degrees(CCW, gates);
 255              		.loc 1 68 0
 256 0064 0199     		ldr	r1, [sp, #4]
 257 0066 0120     		movs	r0, #1
 258 0068 FFF7FEFF 		bl	RunMotors45Degrees
 259              	.LVL26:
 260 006c 03E0     		b	.L7
 261              	.L16:
  69:gates.c       ****     } else{
  70:gates.c       ****         RunMotors45Degrees(CW, gates);
 262              		.loc 1 70 0
 263 006e 0199     		ldr	r1, [sp, #4]
 264 0070 0020     		movs	r0, #0
 265 0072 FFF7FEFF 		bl	RunMotors45Degrees
 266              	.LVL27:
 267              	.L7:
  71:gates.c       ****     }
  72:gates.c       ****     
  73:gates.c       **** }...
 268              		.loc 1 73 0
 269 0076 02B0     		add	sp, sp, #8
ARM GAS  C:\Users\ADMIN\AppData\Local\Temp\ccPTxmye.s 			page 7


 270              		@ sp needed
 271 0078 10BD     		pop	{r4, pc}
 272              	.L19:
 273 007a C046     		.align	2
 274              	.L18:
 275 007c 00000000 		.word	.L10
 276 0080 1C000000 		.word	.LANCHOR0
 277              		.cfi_endproc
 278              	.LFE35:
 279              		.size	OpenCloseTestGates, .-OpenCloseTestGates
 280              		.comm	max_none_color,12,4
 281              		.comm	min_none_color,12,4
 282              		.comm	button_pushed,1,1
 283              		.section	.rodata
 284              		.align	2
 285              		.set	.LANCHOR0,. + 0
 286              	.LC0:
 287 001c 00       		.byte	0
 288 001d 01       		.byte	1
 289 001e 01       		.byte	1
 290 001f 00       		.space	1
 291              	.LC1:
 292 0020 01       		.byte	1
 293 0021 00       		.byte	0
 294 0022 01       		.byte	1
 295              		.text
 296              	.Letext0:
 297              		.file 2 "c:\\program files (x86)\\cypress\\psoc creator\\4.4\\psoc creator\\import\\gnu\\arm\\5.4.
 298              		.file 3 "c:\\program files (x86)\\cypress\\psoc creator\\4.4\\psoc creator\\import\\gnu\\arm\\5.4.
 299              		.file 4 "gates.h"
 300              		.file 5 "tcs34725.h"
 301              		.file 6 "Generated_Source\\PSoC4/Dir_1.h"
 302              		.file 7 "Generated_Source\\PSoC4/Dir_2_5.h"
 303              		.file 8 "Generated_Source\\PSoC4/Dir_3_4.h"
 304              		.file 9 "Generated_Source\\PSoC4/Control_Reg_2.h"
 305              		.file 10 "Generated_Source\\PSoC4/Control_Reg_1.h"
 306              		.file 11 "Generated_Source\\PSoC4/Status_Reg_1.h"
 307              		.file 12 "Generated_Source\\PSoC4/CyLib.h"
 308              		.file 13 "Generated_Source\\PSoC4/PWM_Container.h"