ARM GAS  C:\Users\ADMIN\AppData\Local\Temp\ccouXw6M.s 			page 1


   1              		.syntax unified
   2              		.cpu cortex-m0
   3              		.fpu softvfp
   4              		.eabi_attribute 20, 1
   5              		.eabi_attribute 21, 1
   6              		.eabi_attribute 23, 3
   7              		.eabi_attribute 24, 1
   8              		.eabi_attribute 25, 1
   9              		.eabi_attribute 26, 1
  10              		.eabi_attribute 30, 1
  11              		.eabi_attribute 34, 0
  12              		.eabi_attribute 18, 4
  13              		.thumb
  14              		.syntax unified
  15              		.file	"cyfitter_cfg.c"
  16              		.text
  17              	.Ltext0:
  18              		.cfi_sections	.debug_frame
  19              		.section	.text.cfg_write_bytes32,"ax",%progbits
  20              		.align	2
  21              		.code	16
  22              		.thumb_func
  23              		.type	cfg_write_bytes32, %function
  24              	cfg_write_bytes32:
  25              	.LFB3:
  26              		.file 1 "Generated_Source\\PSoC4\\cyfitter_cfg.c"
   1:Generated_Source\PSoC4/cyfitter_cfg.c **** 
   2:Generated_Source\PSoC4/cyfitter_cfg.c **** /*******************************************************************************
   3:Generated_Source\PSoC4/cyfitter_cfg.c **** * File Name: cyfitter_cfg.c
   4:Generated_Source\PSoC4/cyfitter_cfg.c **** * 
   5:Generated_Source\PSoC4/cyfitter_cfg.c **** * PSoC Creator  4.4
   6:Generated_Source\PSoC4/cyfitter_cfg.c **** *
   7:Generated_Source\PSoC4/cyfitter_cfg.c **** * Description:
   8:Generated_Source\PSoC4/cyfitter_cfg.c **** * This file contains device initialization code.
   9:Generated_Source\PSoC4/cyfitter_cfg.c **** * Except for the user defined sections in CyClockStartupError(), this file should not be modified.
  10:Generated_Source\PSoC4/cyfitter_cfg.c **** * This file is automatically generated by PSoC Creator.
  11:Generated_Source\PSoC4/cyfitter_cfg.c **** *
  12:Generated_Source\PSoC4/cyfitter_cfg.c **** ********************************************************************************
  13:Generated_Source\PSoC4/cyfitter_cfg.c **** * Copyright (c) 2007-2020 Cypress Semiconductor.  All rights reserved.
  14:Generated_Source\PSoC4/cyfitter_cfg.c **** * You may use this file only in accordance with the license, terms, conditions, 
  15:Generated_Source\PSoC4/cyfitter_cfg.c **** * disclaimers, and limitations in the end user license agreement accompanying 
  16:Generated_Source\PSoC4/cyfitter_cfg.c **** * the software package with which this file was provided.
  17:Generated_Source\PSoC4/cyfitter_cfg.c **** ********************************************************************************/
  18:Generated_Source\PSoC4/cyfitter_cfg.c **** 
  19:Generated_Source\PSoC4/cyfitter_cfg.c **** #include <string.h>
  20:Generated_Source\PSoC4/cyfitter_cfg.c **** #include "cytypes.h"
  21:Generated_Source\PSoC4/cyfitter_cfg.c **** #include "cydevice_trm.h"
  22:Generated_Source\PSoC4/cyfitter_cfg.c **** #include "cyfitter.h"
  23:Generated_Source\PSoC4/cyfitter_cfg.c **** #include "CyLib.h"
  24:Generated_Source\PSoC4/cyfitter_cfg.c **** #include "CyLFClk.h"
  25:Generated_Source\PSoC4/cyfitter_cfg.c **** #include "cyfitter_cfg.h"
  26:Generated_Source\PSoC4/cyfitter_cfg.c **** 
  27:Generated_Source\PSoC4/cyfitter_cfg.c **** 
  28:Generated_Source\PSoC4/cyfitter_cfg.c **** #if defined(__GNUC__) || defined(__ARMCC_VERSION)
  29:Generated_Source\PSoC4/cyfitter_cfg.c ****     #define CYPACKED 
  30:Generated_Source\PSoC4/cyfitter_cfg.c ****     #define CYPACKED_ATTR __attribute__ ((packed))
  31:Generated_Source\PSoC4/cyfitter_cfg.c ****     #define CYALIGNED __attribute__ ((aligned))
ARM GAS  C:\Users\ADMIN\AppData\Local\Temp\ccouXw6M.s 			page 2


  32:Generated_Source\PSoC4/cyfitter_cfg.c ****     #define CY_CFG_UNUSED __attribute__ ((unused))
  33:Generated_Source\PSoC4/cyfitter_cfg.c ****     #ifndef CY_CFG_SECTION
  34:Generated_Source\PSoC4/cyfitter_cfg.c ****         #define CY_CFG_SECTION __attribute__ ((section(".psocinit")))
  35:Generated_Source\PSoC4/cyfitter_cfg.c ****     #endif
  36:Generated_Source\PSoC4/cyfitter_cfg.c ****     
  37:Generated_Source\PSoC4/cyfitter_cfg.c ****     #if defined(__ARMCC_VERSION)
  38:Generated_Source\PSoC4/cyfitter_cfg.c ****         #define CY_CFG_MEMORY_BARRIER() __memory_changed()
  39:Generated_Source\PSoC4/cyfitter_cfg.c ****     #else
  40:Generated_Source\PSoC4/cyfitter_cfg.c ****         #define CY_CFG_MEMORY_BARRIER() __sync_synchronize()
  41:Generated_Source\PSoC4/cyfitter_cfg.c ****     #endif
  42:Generated_Source\PSoC4/cyfitter_cfg.c ****     
  43:Generated_Source\PSoC4/cyfitter_cfg.c **** #elif defined(__ICCARM__)
  44:Generated_Source\PSoC4/cyfitter_cfg.c ****     #include <intrinsics.h>
  45:Generated_Source\PSoC4/cyfitter_cfg.c **** 
  46:Generated_Source\PSoC4/cyfitter_cfg.c ****     #define CYPACKED __packed
  47:Generated_Source\PSoC4/cyfitter_cfg.c ****     #define CYPACKED_ATTR 
  48:Generated_Source\PSoC4/cyfitter_cfg.c ****     #define CYALIGNED _Pragma("data_alignment=4")
  49:Generated_Source\PSoC4/cyfitter_cfg.c ****     #define CY_CFG_UNUSED _Pragma("diag_suppress=Pe177")
  50:Generated_Source\PSoC4/cyfitter_cfg.c ****     #define CY_CFG_SECTION _Pragma("location=\".psocinit\"")
  51:Generated_Source\PSoC4/cyfitter_cfg.c ****     
  52:Generated_Source\PSoC4/cyfitter_cfg.c ****     #define CY_CFG_MEMORY_BARRIER() __DMB()
  53:Generated_Source\PSoC4/cyfitter_cfg.c ****     
  54:Generated_Source\PSoC4/cyfitter_cfg.c **** #else
  55:Generated_Source\PSoC4/cyfitter_cfg.c ****     #error Unsupported toolchain
  56:Generated_Source\PSoC4/cyfitter_cfg.c **** #endif
  57:Generated_Source\PSoC4/cyfitter_cfg.c **** 
  58:Generated_Source\PSoC4/cyfitter_cfg.c **** #ifndef CYCODE
  59:Generated_Source\PSoC4/cyfitter_cfg.c ****     #define CYCODE
  60:Generated_Source\PSoC4/cyfitter_cfg.c **** #endif
  61:Generated_Source\PSoC4/cyfitter_cfg.c **** #ifndef CYDATA
  62:Generated_Source\PSoC4/cyfitter_cfg.c ****     #define CYDATA
  63:Generated_Source\PSoC4/cyfitter_cfg.c **** #endif
  64:Generated_Source\PSoC4/cyfitter_cfg.c **** #ifndef CYFAR
  65:Generated_Source\PSoC4/cyfitter_cfg.c ****     #define CYFAR
  66:Generated_Source\PSoC4/cyfitter_cfg.c **** #endif
  67:Generated_Source\PSoC4/cyfitter_cfg.c **** #ifndef CYXDATA
  68:Generated_Source\PSoC4/cyfitter_cfg.c ****     #define CYXDATA
  69:Generated_Source\PSoC4/cyfitter_cfg.c **** #endif
  70:Generated_Source\PSoC4/cyfitter_cfg.c **** 
  71:Generated_Source\PSoC4/cyfitter_cfg.c **** 
  72:Generated_Source\PSoC4/cyfitter_cfg.c **** CY_CFG_UNUSED
  73:Generated_Source\PSoC4/cyfitter_cfg.c **** static void CYMEMZERO(void *s, size_t n);
  74:Generated_Source\PSoC4/cyfitter_cfg.c **** CY_CFG_UNUSED
  75:Generated_Source\PSoC4/cyfitter_cfg.c **** static void CYMEMZERO(void *s, size_t n)
  76:Generated_Source\PSoC4/cyfitter_cfg.c **** {
  77:Generated_Source\PSoC4/cyfitter_cfg.c **** 	(void)memset(s, 0, n);
  78:Generated_Source\PSoC4/cyfitter_cfg.c **** }
  79:Generated_Source\PSoC4/cyfitter_cfg.c **** CY_CFG_UNUSED
  80:Generated_Source\PSoC4/cyfitter_cfg.c **** static void CYCONFIGCPY(void *dest, const void *src, size_t n);
  81:Generated_Source\PSoC4/cyfitter_cfg.c **** CY_CFG_UNUSED
  82:Generated_Source\PSoC4/cyfitter_cfg.c **** static void CYCONFIGCPY(void *dest, const void *src, size_t n)
  83:Generated_Source\PSoC4/cyfitter_cfg.c **** {
  84:Generated_Source\PSoC4/cyfitter_cfg.c **** 	(void)memcpy(dest, src, n);
  85:Generated_Source\PSoC4/cyfitter_cfg.c **** }
  86:Generated_Source\PSoC4/cyfitter_cfg.c **** CY_CFG_UNUSED
  87:Generated_Source\PSoC4/cyfitter_cfg.c **** static void CYCONFIGCPYCODE(void *dest, const void *src, size_t n);
  88:Generated_Source\PSoC4/cyfitter_cfg.c **** CY_CFG_UNUSED
ARM GAS  C:\Users\ADMIN\AppData\Local\Temp\ccouXw6M.s 			page 3


  89:Generated_Source\PSoC4/cyfitter_cfg.c **** static void CYCONFIGCPYCODE(void *dest, const void *src, size_t n)
  90:Generated_Source\PSoC4/cyfitter_cfg.c **** {
  91:Generated_Source\PSoC4/cyfitter_cfg.c **** 	(void)memcpy(dest, src, n);
  92:Generated_Source\PSoC4/cyfitter_cfg.c **** }
  93:Generated_Source\PSoC4/cyfitter_cfg.c **** 
  94:Generated_Source\PSoC4/cyfitter_cfg.c **** 
  95:Generated_Source\PSoC4/cyfitter_cfg.c **** 
  96:Generated_Source\PSoC4/cyfitter_cfg.c **** 
  97:Generated_Source\PSoC4/cyfitter_cfg.c **** /* Clock startup error codes                                                   */
  98:Generated_Source\PSoC4/cyfitter_cfg.c **** #define CYCLOCKSTART_NO_ERROR    0u
  99:Generated_Source\PSoC4/cyfitter_cfg.c **** #define CYCLOCKSTART_XTAL_ERROR  1u
 100:Generated_Source\PSoC4/cyfitter_cfg.c **** #define CYCLOCKSTART_32KHZ_ERROR 2u
 101:Generated_Source\PSoC4/cyfitter_cfg.c **** #define CYCLOCKSTART_PLL_ERROR   3u
 102:Generated_Source\PSoC4/cyfitter_cfg.c **** #define CYCLOCKSTART_FLL_ERROR   4u
 103:Generated_Source\PSoC4/cyfitter_cfg.c **** #define CYCLOCKSTART_WCO_ERROR   5u
 104:Generated_Source\PSoC4/cyfitter_cfg.c **** 
 105:Generated_Source\PSoC4/cyfitter_cfg.c **** 
 106:Generated_Source\PSoC4/cyfitter_cfg.c **** #ifdef CY_NEED_CYCLOCKSTARTUPERROR
 107:Generated_Source\PSoC4/cyfitter_cfg.c **** /*******************************************************************************
 108:Generated_Source\PSoC4/cyfitter_cfg.c **** * Function Name: CyClockStartupError
 109:Generated_Source\PSoC4/cyfitter_cfg.c **** ********************************************************************************
 110:Generated_Source\PSoC4/cyfitter_cfg.c **** * Summary:
 111:Generated_Source\PSoC4/cyfitter_cfg.c **** *  If an error is encountered during clock configuration (crystal startup error,
 112:Generated_Source\PSoC4/cyfitter_cfg.c **** *  PLL lock error, etc.), the system will end up here.  Unless reimplemented by
 113:Generated_Source\PSoC4/cyfitter_cfg.c **** *  the customer, this function will stop in an infinite loop.
 114:Generated_Source\PSoC4/cyfitter_cfg.c **** *
 115:Generated_Source\PSoC4/cyfitter_cfg.c **** * Parameters:
 116:Generated_Source\PSoC4/cyfitter_cfg.c **** *   void
 117:Generated_Source\PSoC4/cyfitter_cfg.c **** *
 118:Generated_Source\PSoC4/cyfitter_cfg.c **** * Return:
 119:Generated_Source\PSoC4/cyfitter_cfg.c **** *   void
 120:Generated_Source\PSoC4/cyfitter_cfg.c **** *
 121:Generated_Source\PSoC4/cyfitter_cfg.c **** *******************************************************************************/
 122:Generated_Source\PSoC4/cyfitter_cfg.c **** CY_CFG_UNUSED
 123:Generated_Source\PSoC4/cyfitter_cfg.c **** static void CyClockStartupError(uint8 errorCode);
 124:Generated_Source\PSoC4/cyfitter_cfg.c **** CY_CFG_UNUSED
 125:Generated_Source\PSoC4/cyfitter_cfg.c **** static void CyClockStartupError(uint8 errorCode)
 126:Generated_Source\PSoC4/cyfitter_cfg.c **** {
 127:Generated_Source\PSoC4/cyfitter_cfg.c ****     /* To remove the compiler warning if errorCode not used.                */
 128:Generated_Source\PSoC4/cyfitter_cfg.c ****     errorCode = errorCode;
 129:Generated_Source\PSoC4/cyfitter_cfg.c **** 
 130:Generated_Source\PSoC4/cyfitter_cfg.c ****     /* If we have a clock startup error (bad MHz crystal, PLL lock, etc.),  */
 131:Generated_Source\PSoC4/cyfitter_cfg.c ****     /* we will end up here to allow the customer to implement something to  */
 132:Generated_Source\PSoC4/cyfitter_cfg.c ****     /* deal with the clock condition.                                       */
 133:Generated_Source\PSoC4/cyfitter_cfg.c **** 
 134:Generated_Source\PSoC4/cyfitter_cfg.c **** #ifdef CY_CFG_CLOCK_STARTUP_ERROR_CALLBACK
 135:Generated_Source\PSoC4/cyfitter_cfg.c ****     CY_CFG_Clock_Startup_ErrorCallback();
 136:Generated_Source\PSoC4/cyfitter_cfg.c **** #else
 137:Generated_Source\PSoC4/cyfitter_cfg.c ****     /*  If not using CY_CFG_CLOCK_STARTUP_ERROR_CALLBACK, place your clock startup code here. */
 138:Generated_Source\PSoC4/cyfitter_cfg.c ****     /* `#START CyClockStartupError` */
 139:Generated_Source\PSoC4/cyfitter_cfg.c **** 
 140:Generated_Source\PSoC4/cyfitter_cfg.c **** 
 141:Generated_Source\PSoC4/cyfitter_cfg.c **** 
 142:Generated_Source\PSoC4/cyfitter_cfg.c ****     /* `#END` */
 143:Generated_Source\PSoC4/cyfitter_cfg.c **** 
 144:Generated_Source\PSoC4/cyfitter_cfg.c ****     while(1) {}
 145:Generated_Source\PSoC4/cyfitter_cfg.c **** #endif /* CY_CFG_CLOCK_STARTUP_ERROR_CALLBACK */
ARM GAS  C:\Users\ADMIN\AppData\Local\Temp\ccouXw6M.s 			page 4


 146:Generated_Source\PSoC4/cyfitter_cfg.c **** }
 147:Generated_Source\PSoC4/cyfitter_cfg.c **** #endif
 148:Generated_Source\PSoC4/cyfitter_cfg.c **** 
 149:Generated_Source\PSoC4/cyfitter_cfg.c **** #define CY_CFG_BASE_ADDR_COUNT 8u
 150:Generated_Source\PSoC4/cyfitter_cfg.c **** CYPACKED typedef struct
 151:Generated_Source\PSoC4/cyfitter_cfg.c **** {
 152:Generated_Source\PSoC4/cyfitter_cfg.c **** 	uint8 offset;
 153:Generated_Source\PSoC4/cyfitter_cfg.c **** 	uint8 value;
 154:Generated_Source\PSoC4/cyfitter_cfg.c **** } CYPACKED_ATTR cy_cfg_addrvalue_t;
 155:Generated_Source\PSoC4/cyfitter_cfg.c **** 
 156:Generated_Source\PSoC4/cyfitter_cfg.c **** 
 157:Generated_Source\PSoC4/cyfitter_cfg.c **** 
 158:Generated_Source\PSoC4/cyfitter_cfg.c **** /*******************************************************************************
 159:Generated_Source\PSoC4/cyfitter_cfg.c **** * Function Name: cfg_write_bytes32
 160:Generated_Source\PSoC4/cyfitter_cfg.c **** ********************************************************************************
 161:Generated_Source\PSoC4/cyfitter_cfg.c **** * Summary:
 162:Generated_Source\PSoC4/cyfitter_cfg.c **** *  This function is used for setting up the chip configuration areas that
 163:Generated_Source\PSoC4/cyfitter_cfg.c **** *  contain relatively sparse data.
 164:Generated_Source\PSoC4/cyfitter_cfg.c **** *
 165:Generated_Source\PSoC4/cyfitter_cfg.c **** * Parameters:
 166:Generated_Source\PSoC4/cyfitter_cfg.c **** *   void
 167:Generated_Source\PSoC4/cyfitter_cfg.c **** *
 168:Generated_Source\PSoC4/cyfitter_cfg.c **** * Return:
 169:Generated_Source\PSoC4/cyfitter_cfg.c **** *   void
 170:Generated_Source\PSoC4/cyfitter_cfg.c **** *
 171:Generated_Source\PSoC4/cyfitter_cfg.c **** *******************************************************************************/
 172:Generated_Source\PSoC4/cyfitter_cfg.c **** static void cfg_write_bytes32(const uint32 addr_table[], const cy_cfg_addrvalue_t data_table[]);
 173:Generated_Source\PSoC4/cyfitter_cfg.c **** static void cfg_write_bytes32(const uint32 addr_table[], const cy_cfg_addrvalue_t data_table[])
 174:Generated_Source\PSoC4/cyfitter_cfg.c **** {
  27              		.loc 1 174 0
  28              		.cfi_startproc
  29              		@ args = 0, pretend = 0, frame = 0
  30              		@ frame_needed = 0, uses_anonymous_args = 0
  31              	.LVL0:
  32 0000 F0B5     		push	{r4, r5, r6, r7, lr}
  33              		.cfi_def_cfa_offset 20
  34              		.cfi_offset 4, -20
  35              		.cfi_offset 5, -16
  36              		.cfi_offset 6, -12
  37              		.cfi_offset 7, -8
  38              		.cfi_offset 14, -4
  39              	.LVL1:
 175:Generated_Source\PSoC4/cyfitter_cfg.c **** 	/* For 32-bit little-endian architectures */
 176:Generated_Source\PSoC4/cyfitter_cfg.c **** 	uint32 i, j = 0u;
  40              		.loc 1 176 0
  41 0002 0025     		movs	r5, #0
 177:Generated_Source\PSoC4/cyfitter_cfg.c **** 	for (i = 0u; i < CY_CFG_BASE_ADDR_COUNT; i++)
  42              		.loc 1 177 0
  43 0004 0027     		movs	r7, #0
  44 0006 11E0     		b	.L2
  45              	.LVL2:
  46              	.L5:
  47              	.LBB2:
 178:Generated_Source\PSoC4/cyfitter_cfg.c **** 	{
 179:Generated_Source\PSoC4/cyfitter_cfg.c **** 		uint32 baseAddr = addr_table[i];
  48              		.loc 1 179 0
  49 0008 BB00     		lsls	r3, r7, #2
ARM GAS  C:\Users\ADMIN\AppData\Local\Temp\ccouXw6M.s 			page 5


  50 000a C658     		ldr	r6, [r0, r3]
  51              	.LVL3:
 180:Generated_Source\PSoC4/cyfitter_cfg.c **** 		uint8 count = (uint8)baseAddr;
  52              		.loc 1 180 0
  53 000c F3B2     		uxtb	r3, r6
  54              	.LVL4:
 181:Generated_Source\PSoC4/cyfitter_cfg.c **** 		baseAddr &= 0xFFFFFF00u;
  55              		.loc 1 181 0
  56 000e FF22     		movs	r2, #255
  57 0010 9643     		bics	r6, r2
  58              	.LVL5:
 182:Generated_Source\PSoC4/cyfitter_cfg.c **** 		while (count != 0u)
  59              		.loc 1 182 0
  60 0012 08E0     		b	.L3
  61              	.L4:
 183:Generated_Source\PSoC4/cyfitter_cfg.c **** 		{
 184:Generated_Source\PSoC4/cyfitter_cfg.c **** 			CY_SET_REG8((void *)(baseAddr + data_table[j].offset), data_table[j].value);
  62              		.loc 1 184 0
  63 0014 6A00     		lsls	r2, r5, #1
  64 0016 8A18     		adds	r2, r1, r2
  65 0018 1478     		ldrb	r4, [r2]
  66 001a A419     		adds	r4, r4, r6
  67 001c 5278     		ldrb	r2, [r2, #1]
  68 001e 2270     		strb	r2, [r4]
 185:Generated_Source\PSoC4/cyfitter_cfg.c **** 			j++;
  69              		.loc 1 185 0
  70 0020 0135     		adds	r5, r5, #1
  71              	.LVL6:
 186:Generated_Source\PSoC4/cyfitter_cfg.c **** 			count--;
  72              		.loc 1 186 0
  73 0022 013B     		subs	r3, r3, #1
  74              	.LVL7:
  75 0024 DBB2     		uxtb	r3, r3
  76              	.LVL8:
  77              	.L3:
 182:Generated_Source\PSoC4/cyfitter_cfg.c **** 		{
  78              		.loc 1 182 0
  79 0026 002B     		cmp	r3, #0
  80 0028 F4D1     		bne	.L4
  81              	.LBE2:
 177:Generated_Source\PSoC4/cyfitter_cfg.c **** 	{
  82              		.loc 1 177 0 discriminator 2
  83 002a 0137     		adds	r7, r7, #1
  84              	.LVL9:
  85              	.L2:
 177:Generated_Source\PSoC4/cyfitter_cfg.c **** 	{
  86              		.loc 1 177 0 is_stmt 0 discriminator 1
  87 002c 072F     		cmp	r7, #7
  88 002e EBD9     		bls	.L5
 187:Generated_Source\PSoC4/cyfitter_cfg.c **** 		}
 188:Generated_Source\PSoC4/cyfitter_cfg.c **** 	}
 189:Generated_Source\PSoC4/cyfitter_cfg.c **** }
  89              		.loc 1 189 0 is_stmt 1
  90              		@ sp needed
  91              	.LVL10:
  92              	.LVL11:
  93 0030 F0BD     		pop	{r4, r5, r6, r7, pc}
ARM GAS  C:\Users\ADMIN\AppData\Local\Temp\ccouXw6M.s 			page 6


  94              		.cfi_endproc
  95              	.LFE3:
  96              		.size	cfg_write_bytes32, .-cfg_write_bytes32
  97 0032 C046     		.section	.text.CYMEMZERO,"ax",%progbits
  98              		.align	2
  99              		.code	16
 100              		.thumb_func
 101              		.type	CYMEMZERO, %function
 102              	CYMEMZERO:
 103              	.LFB0:
  76:Generated_Source\PSoC4/cyfitter_cfg.c **** 	(void)memset(s, 0, n);
 104              		.loc 1 76 0
 105              		.cfi_startproc
 106              		@ args = 0, pretend = 0, frame = 0
 107              		@ frame_needed = 0, uses_anonymous_args = 0
 108              	.LVL12:
 109 0000 10B5     		push	{r4, lr}
 110              		.cfi_def_cfa_offset 8
 111              		.cfi_offset 4, -8
 112              		.cfi_offset 14, -4
 113 0002 0A00     		movs	r2, r1
  77:Generated_Source\PSoC4/cyfitter_cfg.c **** }
 114              		.loc 1 77 0
 115 0004 0021     		movs	r1, #0
 116              	.LVL13:
 117 0006 FFF7FEFF 		bl	memset
 118              	.LVL14:
  78:Generated_Source\PSoC4/cyfitter_cfg.c **** CY_CFG_UNUSED
 119              		.loc 1 78 0
 120              		@ sp needed
 121 000a 10BD     		pop	{r4, pc}
 122              		.cfi_endproc
 123              	.LFE0:
 124              		.size	CYMEMZERO, .-CYMEMZERO
 125              		.section	.psocinit,"ax",%progbits
 126              		.align	2
 127              		.code	16
 128              		.thumb_func
 129              		.type	ClockSetup, %function
 130              	ClockSetup:
 131              	.LFB4:
 190:Generated_Source\PSoC4/cyfitter_cfg.c **** 
 191:Generated_Source\PSoC4/cyfitter_cfg.c **** 
 192:Generated_Source\PSoC4/cyfitter_cfg.c **** /*******************************************************************************
 193:Generated_Source\PSoC4/cyfitter_cfg.c **** * Function Name: ClockSetup
 194:Generated_Source\PSoC4/cyfitter_cfg.c **** ********************************************************************************
 195:Generated_Source\PSoC4/cyfitter_cfg.c **** *
 196:Generated_Source\PSoC4/cyfitter_cfg.c **** * Summary:
 197:Generated_Source\PSoC4/cyfitter_cfg.c **** *   Performs the initialization of all of the clocks in the device based on the
 198:Generated_Source\PSoC4/cyfitter_cfg.c **** *   settings in the Clock tab of the DWR.  This includes enabling the requested
 199:Generated_Source\PSoC4/cyfitter_cfg.c **** *   clocks and setting the necessary dividers to produce the desired frequency. 
 200:Generated_Source\PSoC4/cyfitter_cfg.c **** *
 201:Generated_Source\PSoC4/cyfitter_cfg.c **** * Parameters:
 202:Generated_Source\PSoC4/cyfitter_cfg.c **** *   void
 203:Generated_Source\PSoC4/cyfitter_cfg.c **** *
 204:Generated_Source\PSoC4/cyfitter_cfg.c **** * Return:
 205:Generated_Source\PSoC4/cyfitter_cfg.c **** *   void
ARM GAS  C:\Users\ADMIN\AppData\Local\Temp\ccouXw6M.s 			page 7


 206:Generated_Source\PSoC4/cyfitter_cfg.c **** *
 207:Generated_Source\PSoC4/cyfitter_cfg.c **** *******************************************************************************/
 208:Generated_Source\PSoC4/cyfitter_cfg.c **** static void ClockSetup(void);
 209:Generated_Source\PSoC4/cyfitter_cfg.c **** CY_CFG_SECTION
 210:Generated_Source\PSoC4/cyfitter_cfg.c **** static void ClockSetup(void)
 211:Generated_Source\PSoC4/cyfitter_cfg.c **** {
 132              		.loc 1 211 0
 133              		.cfi_startproc
 134              		@ args = 0, pretend = 0, frame = 0
 135              		@ frame_needed = 0, uses_anonymous_args = 0
 136 0000 70B5     		push	{r4, r5, r6, lr}
 137              		.cfi_def_cfa_offset 16
 138              		.cfi_offset 4, -16
 139              		.cfi_offset 5, -12
 140              		.cfi_offset 6, -8
 141              		.cfi_offset 14, -4
 212:Generated_Source\PSoC4/cyfitter_cfg.c **** 	/* Enable HALF_EN before trimming for the flash accelerator. */
 213:Generated_Source\PSoC4/cyfitter_cfg.c **** 	CY_SET_REG32((void CYXDATA *)(CYREG_CLK_SELECT), (CY_GET_REG32((void *)CYREG_CLK_SELECT) | 0x00040
 142              		.loc 1 213 0
 143 0002 204C     		ldr	r4, .L8
 144 0004 2368     		ldr	r3, [r4]
 145 0006 8022     		movs	r2, #128
 146 0008 D202     		lsls	r2, r2, #11
 147 000a 1343     		orrs	r3, r2
 148 000c 2360     		str	r3, [r4]
 214:Generated_Source\PSoC4/cyfitter_cfg.c **** 
 215:Generated_Source\PSoC4/cyfitter_cfg.c **** 	/* Setup and trim IMO based on desired frequency. */
 216:Generated_Source\PSoC4/cyfitter_cfg.c **** 	CySysClkWriteImoFreq(24u);
 149              		.loc 1 216 0
 150 000e 1820     		movs	r0, #24
 151 0010 FFF7FEFF 		bl	CySysClkWriteImoFreq
 152              	.LVL15:
 217:Generated_Source\PSoC4/cyfitter_cfg.c **** 
 218:Generated_Source\PSoC4/cyfitter_cfg.c **** 	/* Disable HALF_EN since it is not required at this IMO frequency. */
 219:Generated_Source\PSoC4/cyfitter_cfg.c **** 	CY_SET_REG32((void CYXDATA *)(CYREG_CLK_SELECT), (CY_GET_REG32((void *)CYREG_CLK_SELECT) & 0xFFFBF
 153              		.loc 1 219 0
 154 0014 2268     		ldr	r2, [r4]
 155 0016 1C4B     		ldr	r3, .L8+4
 156 0018 1340     		ands	r3, r2
 157 001a 2360     		str	r3, [r4]
 220:Generated_Source\PSoC4/cyfitter_cfg.c **** 	/* CYDEV_CLK_ILO_CONFIG Starting address: CYDEV_CLK_ILO_CONFIG */
 221:Generated_Source\PSoC4/cyfitter_cfg.c **** 	CY_SET_REG32((void *)(CYREG_CLK_ILO_CONFIG), 0x80000006u);
 158              		.loc 1 221 0
 159 001c 1B4A     		ldr	r2, .L8+8
 160 001e 1C4B     		ldr	r3, .L8+12
 161 0020 1A60     		str	r2, [r3]
 222:Generated_Source\PSoC4/cyfitter_cfg.c **** 
 223:Generated_Source\PSoC4/cyfitter_cfg.c **** 
 224:Generated_Source\PSoC4/cyfitter_cfg.c **** 	/* CYDEV_CLK_SELECT00 Starting address: CYDEV_CLK_SELECT00 */
 225:Generated_Source\PSoC4/cyfitter_cfg.c **** 	CY_SET_REG32((void *)(CYREG_CLK_SELECT02), 0x00000010u);
 162              		.loc 1 225 0
 163 0022 1022     		movs	r2, #16
 164 0024 1B4B     		ldr	r3, .L8+16
 165 0026 1A60     		str	r2, [r3]
 226:Generated_Source\PSoC4/cyfitter_cfg.c **** 	CY_SET_REG32((void *)(CYREG_CLK_SELECT03), 0x00000030u);
 166              		.loc 1 226 0
 167 0028 2032     		adds	r2, r2, #32
ARM GAS  C:\Users\ADMIN\AppData\Local\Temp\ccouXw6M.s 			page 8


 168 002a 1B4B     		ldr	r3, .L8+20
 169 002c 1A60     		str	r2, [r3]
 227:Generated_Source\PSoC4/cyfitter_cfg.c **** 	CY_SET_REG32((void *)(CYREG_CLK_SELECT07), 0x00000020u);
 170              		.loc 1 227 0
 171 002e 103A     		subs	r2, r2, #16
 172 0030 1A4B     		ldr	r3, .L8+24
 173 0032 1A60     		str	r2, [r3]
 228:Generated_Source\PSoC4/cyfitter_cfg.c **** 	CY_SET_REG32((void *)(CYREG_CLK_SELECT08), 0x00000011u);
 174              		.loc 1 228 0
 175 0034 1123     		movs	r3, #17
 176 0036 1A4A     		ldr	r2, .L8+28
 177 0038 1360     		str	r3, [r2]
 229:Generated_Source\PSoC4/cyfitter_cfg.c **** 	CY_SET_REG32((void *)(CYREG_CLK_SELECT09), 0x00000011u);
 178              		.loc 1 229 0
 179 003a 1A4A     		ldr	r2, .L8+32
 180 003c 1360     		str	r3, [r2]
 230:Generated_Source\PSoC4/cyfitter_cfg.c **** 	CY_SET_REG32((void *)(CYREG_CLK_SELECT10), 0x00000011u);
 181              		.loc 1 230 0
 182 003e 1A4A     		ldr	r2, .L8+36
 183 0040 1360     		str	r3, [r2]
 231:Generated_Source\PSoC4/cyfitter_cfg.c **** 	CY_SET_REG32((void *)(CYREG_CLK_SELECT11), 0x00000011u);
 184              		.loc 1 231 0
 185 0042 1A4A     		ldr	r2, .L8+40
 186 0044 1360     		str	r3, [r2]
 232:Generated_Source\PSoC4/cyfitter_cfg.c **** 	CY_SET_REG32((void *)(CYREG_CLK_SELECT12), 0x00000011u);
 187              		.loc 1 232 0
 188 0046 1A4A     		ldr	r2, .L8+44
 189 0048 1360     		str	r3, [r2]
 233:Generated_Source\PSoC4/cyfitter_cfg.c **** 
 234:Generated_Source\PSoC4/cyfitter_cfg.c **** 	/* CYDEV_CLK_IMO_CONFIG Starting address: CYDEV_CLK_IMO_CONFIG */
 235:Generated_Source\PSoC4/cyfitter_cfg.c **** 	CY_SET_REG32((void *)(CYREG_CLK_IMO_CONFIG), 0x82000000u);
 190              		.loc 1 235 0
 191 004a 8222     		movs	r2, #130
 192 004c 1206     		lsls	r2, r2, #24
 193 004e 194B     		ldr	r3, .L8+48
 194 0050 1A60     		str	r2, [r3]
 236:Generated_Source\PSoC4/cyfitter_cfg.c **** 
 237:Generated_Source\PSoC4/cyfitter_cfg.c **** 	/* CYDEV_CLK_SELECT Starting address: CYDEV_CLK_SELECT */
 238:Generated_Source\PSoC4/cyfitter_cfg.c **** 	CY_SET_REG32((void *)(CYREG_CLK_SELECT), 0x00000000u);
 195              		.loc 1 238 0
 196 0052 0025     		movs	r5, #0
 197 0054 2560     		str	r5, [r4]
 239:Generated_Source\PSoC4/cyfitter_cfg.c **** 
 240:Generated_Source\PSoC4/cyfitter_cfg.c **** 	/* CYDEV_CLK_DIVIDER_A00 Starting address: CYDEV_CLK_DIVIDER_A00 */
 241:Generated_Source\PSoC4/cyfitter_cfg.c **** 	CY_SET_REG32((void *)(CYREG_CLK_DIVIDER_A00), 0x8000000Eu);
 198              		.loc 1 241 0
 199 0056 184A     		ldr	r2, .L8+52
 200 0058 184B     		ldr	r3, .L8+56
 201 005a 1A60     		str	r2, [r3]
 242:Generated_Source\PSoC4/cyfitter_cfg.c **** 
 243:Generated_Source\PSoC4/cyfitter_cfg.c **** 	/* CYDEV_CLK_DIVIDER_B00 Starting address: CYDEV_CLK_DIVIDER_B00 */
 244:Generated_Source\PSoC4/cyfitter_cfg.c **** 	CY_SET_REG32((void *)(CYREG_CLK_DIVIDER_B00), 0x80000017u);
 202              		.loc 1 244 0
 203 005c 184A     		ldr	r2, .L8+60
 204 005e 194B     		ldr	r3, .L8+64
 205 0060 1A60     		str	r2, [r3]
 245:Generated_Source\PSoC4/cyfitter_cfg.c **** 
ARM GAS  C:\Users\ADMIN\AppData\Local\Temp\ccouXw6M.s 			page 9


 246:Generated_Source\PSoC4/cyfitter_cfg.c **** 	/* CYDEV_CLK_DIVIDER_C00 Starting address: CYDEV_CLK_DIVIDER_C00 */
 247:Generated_Source\PSoC4/cyfitter_cfg.c **** 	CY_SET_REG32((void *)(CYREG_CLK_DIVIDER_C00), 0x800000CFu);
 206              		.loc 1 247 0
 207 0062 194A     		ldr	r2, .L8+68
 208 0064 194B     		ldr	r3, .L8+72
 209 0066 1A60     		str	r2, [r3]
 248:Generated_Source\PSoC4/cyfitter_cfg.c **** 
 249:Generated_Source\PSoC4/cyfitter_cfg.c **** 	/* CYDEV_CLK_DIVIDER_A01 Starting address: CYDEV_CLK_DIVIDER_A01 */
 250:Generated_Source\PSoC4/cyfitter_cfg.c **** 	CY_SET_REG32((void *)(CYREG_CLK_DIVIDER_A01), 0x8000176Fu);
 210              		.loc 1 250 0
 211 0068 194A     		ldr	r2, .L8+76
 212 006a 1A4B     		ldr	r3, .L8+80
 213 006c 1A60     		str	r2, [r3]
 251:Generated_Source\PSoC4/cyfitter_cfg.c **** 
 252:Generated_Source\PSoC4/cyfitter_cfg.c **** 	(void)CyIntSetVector(9u, &CySysWdtIsr);
 214              		.loc 1 252 0
 215 006e 1A49     		ldr	r1, .L8+84
 216 0070 0920     		movs	r0, #9
 217 0072 FFF7FEFF 		bl	CyIntSetVector
 218              	.LVL16:
 253:Generated_Source\PSoC4/cyfitter_cfg.c **** 	CyIntEnable(9u);
 219              		.loc 1 253 0
 220 0076 0920     		movs	r0, #9
 221 0078 FFF7FEFF 		bl	CyIntEnable
 222              	.LVL17:
 254:Generated_Source\PSoC4/cyfitter_cfg.c **** 	CY_SET_REG32((void *)(CYREG_WDT_CONFIG), 0x00000000u);
 223              		.loc 1 254 0
 224 007c 174B     		ldr	r3, .L8+88
 225 007e 1D60     		str	r5, [r3]
 255:Generated_Source\PSoC4/cyfitter_cfg.c **** }
 226              		.loc 1 255 0
 227              		@ sp needed
 228 0080 70BD     		pop	{r4, r5, r6, pc}
 229              	.L9:
 230 0082 C046     		.align	2
 231              	.L8:
 232 0084 00010B40 		.word	1074462976
 233 0088 FFFFFBFF 		.word	-262145
 234 008c 06000080 		.word	-2147483642
 235 0090 04010B40 		.word	1074462980
 236 0094 08020240 		.word	1073873416
 237 0098 0C020240 		.word	1073873420
 238 009c 1C020240 		.word	1073873436
 239 00a0 20020240 		.word	1073873440
 240 00a4 24020240 		.word	1073873444
 241 00a8 28020240 		.word	1073873448
 242 00ac 2C020240 		.word	1073873452
 243 00b0 30020240 		.word	1073873456
 244 00b4 08010B40 		.word	1074462984
 245 00b8 0E000080 		.word	-2147483634
 246 00bc 00000240 		.word	1073872896
 247 00c0 17000080 		.word	-2147483625
 248 00c4 40000240 		.word	1073872960
 249 00c8 CF000080 		.word	-2147483441
 250 00cc 80000240 		.word	1073873024
 251 00d0 6F170080 		.word	-2147477649
 252 00d4 04000240 		.word	1073872900
ARM GAS  C:\Users\ADMIN\AppData\Local\Temp\ccouXw6M.s 			page 10


 253 00d8 00000000 		.word	CySysWdtIsr
 254 00dc 0C020B40 		.word	1074463244
 255              		.cfi_endproc
 256              	.LFE4:
 257              		.size	ClockSetup, .-ClockSetup
 258              		.section	.text.SetAnalogRoutingPumps,"ax",%progbits
 259              		.align	2
 260              		.global	SetAnalogRoutingPumps
 261              		.code	16
 262              		.thumb_func
 263              		.type	SetAnalogRoutingPumps, %function
 264              	SetAnalogRoutingPumps:
 265              	.LFB6:
 256:Generated_Source\PSoC4/cyfitter_cfg.c **** 
 257:Generated_Source\PSoC4/cyfitter_cfg.c **** 
 258:Generated_Source\PSoC4/cyfitter_cfg.c **** /* Analog API Functions */
 259:Generated_Source\PSoC4/cyfitter_cfg.c **** 
 260:Generated_Source\PSoC4/cyfitter_cfg.c **** 
 261:Generated_Source\PSoC4/cyfitter_cfg.c **** /*******************************************************************************
 262:Generated_Source\PSoC4/cyfitter_cfg.c **** * Function Name: AnalogSetDefault
 263:Generated_Source\PSoC4/cyfitter_cfg.c **** ********************************************************************************
 264:Generated_Source\PSoC4/cyfitter_cfg.c **** *
 265:Generated_Source\PSoC4/cyfitter_cfg.c **** * Summary:
 266:Generated_Source\PSoC4/cyfitter_cfg.c **** *  Sets up the analog portions of the chip to default values based on chip
 267:Generated_Source\PSoC4/cyfitter_cfg.c **** *  configuration options from the project.
 268:Generated_Source\PSoC4/cyfitter_cfg.c **** *
 269:Generated_Source\PSoC4/cyfitter_cfg.c **** * Parameters:
 270:Generated_Source\PSoC4/cyfitter_cfg.c **** *  void
 271:Generated_Source\PSoC4/cyfitter_cfg.c **** *
 272:Generated_Source\PSoC4/cyfitter_cfg.c **** * Return:
 273:Generated_Source\PSoC4/cyfitter_cfg.c **** *  void
 274:Generated_Source\PSoC4/cyfitter_cfg.c **** *
 275:Generated_Source\PSoC4/cyfitter_cfg.c **** *******************************************************************************/
 276:Generated_Source\PSoC4/cyfitter_cfg.c **** static void AnalogSetDefault(void);
 277:Generated_Source\PSoC4/cyfitter_cfg.c **** static void AnalogSetDefault(void)
 278:Generated_Source\PSoC4/cyfitter_cfg.c **** {
 279:Generated_Source\PSoC4/cyfitter_cfg.c **** 	CY_SET_XTND_REG32((void CYFAR *)CYREG_SAR_MUX_SWITCH0, 0x00040000u);
 280:Generated_Source\PSoC4/cyfitter_cfg.c **** 	SetAnalogRoutingPumps(1);
 281:Generated_Source\PSoC4/cyfitter_cfg.c **** }
 282:Generated_Source\PSoC4/cyfitter_cfg.c **** 
 283:Generated_Source\PSoC4/cyfitter_cfg.c **** 
 284:Generated_Source\PSoC4/cyfitter_cfg.c **** /*******************************************************************************
 285:Generated_Source\PSoC4/cyfitter_cfg.c **** * Function Name: SetAnalogRoutingPumps
 286:Generated_Source\PSoC4/cyfitter_cfg.c **** ********************************************************************************
 287:Generated_Source\PSoC4/cyfitter_cfg.c **** *
 288:Generated_Source\PSoC4/cyfitter_cfg.c **** * Summary:
 289:Generated_Source\PSoC4/cyfitter_cfg.c **** * Enables or disables the analog pumps feeding analog routing switches.
 290:Generated_Source\PSoC4/cyfitter_cfg.c **** * Intended to be called at startup, based on the Vdda system configuration;
 291:Generated_Source\PSoC4/cyfitter_cfg.c **** * may be called during operation when the user informs us that the Vdda voltage crossed the pump th
 292:Generated_Source\PSoC4/cyfitter_cfg.c **** *
 293:Generated_Source\PSoC4/cyfitter_cfg.c **** * Parameters:
 294:Generated_Source\PSoC4/cyfitter_cfg.c **** *  enabled - 1 to enable the pumps, 0 to disable the pumps
 295:Generated_Source\PSoC4/cyfitter_cfg.c **** *
 296:Generated_Source\PSoC4/cyfitter_cfg.c **** * Return:
 297:Generated_Source\PSoC4/cyfitter_cfg.c **** *  void
 298:Generated_Source\PSoC4/cyfitter_cfg.c **** *
 299:Generated_Source\PSoC4/cyfitter_cfg.c **** *******************************************************************************/
ARM GAS  C:\Users\ADMIN\AppData\Local\Temp\ccouXw6M.s 			page 11


 300:Generated_Source\PSoC4/cyfitter_cfg.c **** void SetAnalogRoutingPumps(uint8 enabled)
 301:Generated_Source\PSoC4/cyfitter_cfg.c **** {
 266              		.loc 1 301 0
 267              		.cfi_startproc
 268              		@ args = 0, pretend = 0, frame = 0
 269              		@ frame_needed = 0, uses_anonymous_args = 0
 270              		@ link register save eliminated.
 271              	.LVL18:
 302:Generated_Source\PSoC4/cyfitter_cfg.c **** 	uint32 regValue = CY_GET_XTND_REG32((void *)(CYREG_SAR_PUMP_CTRL));
 272              		.loc 1 302 0
 273 0000 064B     		ldr	r3, .L13
 274 0002 1B68     		ldr	r3, [r3]
 275              	.LVL19:
 303:Generated_Source\PSoC4/cyfitter_cfg.c **** 	if (enabled != 0u)
 276              		.loc 1 303 0
 277 0004 0028     		cmp	r0, #0
 278 0006 03D0     		beq	.L11
 304:Generated_Source\PSoC4/cyfitter_cfg.c **** 	{
 305:Generated_Source\PSoC4/cyfitter_cfg.c **** 		regValue |= 0x80000000u;
 279              		.loc 1 305 0
 280 0008 8022     		movs	r2, #128
 281 000a 1206     		lsls	r2, r2, #24
 282 000c 1343     		orrs	r3, r2
 283              	.LVL20:
 284 000e 01E0     		b	.L12
 285              	.L11:
 306:Generated_Source\PSoC4/cyfitter_cfg.c **** 	}
 307:Generated_Source\PSoC4/cyfitter_cfg.c **** 	else
 308:Generated_Source\PSoC4/cyfitter_cfg.c **** 	{
 309:Generated_Source\PSoC4/cyfitter_cfg.c **** 		regValue &= ~0x80000000u;
 286              		.loc 1 309 0
 287 0010 5B00     		lsls	r3, r3, #1
 288              	.LVL21:
 289 0012 5B08     		lsrs	r3, r3, #1
 290              	.LVL22:
 291              	.L12:
 310:Generated_Source\PSoC4/cyfitter_cfg.c **** 	}
 311:Generated_Source\PSoC4/cyfitter_cfg.c **** 	CY_SET_XTND_REG32((void *)(CYREG_SAR_PUMP_CTRL), regValue);
 292              		.loc 1 311 0
 293 0014 014A     		ldr	r2, .L13
 294 0016 1360     		str	r3, [r2]
 312:Generated_Source\PSoC4/cyfitter_cfg.c **** }
 295              		.loc 1 312 0
 296              		@ sp needed
 297 0018 7047     		bx	lr
 298              	.L14:
 299 001a C046     		.align	2
 300              	.L13:
 301 001c 80031A40 		.word	1075446656
 302              		.cfi_endproc
 303              	.LFE6:
 304              		.size	SetAnalogRoutingPumps, .-SetAnalogRoutingPumps
 305              		.section	.text.AnalogSetDefault,"ax",%progbits
 306              		.align	2
 307              		.code	16
 308              		.thumb_func
 309              		.type	AnalogSetDefault, %function
ARM GAS  C:\Users\ADMIN\AppData\Local\Temp\ccouXw6M.s 			page 12


 310              	AnalogSetDefault:
 311              	.LFB5:
 278:Generated_Source\PSoC4/cyfitter_cfg.c **** 	CY_SET_XTND_REG32((void CYFAR *)CYREG_SAR_MUX_SWITCH0, 0x00040000u);
 312              		.loc 1 278 0
 313              		.cfi_startproc
 314              		@ args = 0, pretend = 0, frame = 0
 315              		@ frame_needed = 0, uses_anonymous_args = 0
 316 0000 10B5     		push	{r4, lr}
 317              		.cfi_def_cfa_offset 8
 318              		.cfi_offset 4, -8
 319              		.cfi_offset 14, -4
 279:Generated_Source\PSoC4/cyfitter_cfg.c **** 	SetAnalogRoutingPumps(1);
 320              		.loc 1 279 0
 321 0002 8022     		movs	r2, #128
 322 0004 D202     		lsls	r2, r2, #11
 323 0006 034B     		ldr	r3, .L16
 324 0008 1A60     		str	r2, [r3]
 280:Generated_Source\PSoC4/cyfitter_cfg.c **** }
 325              		.loc 1 280 0
 326 000a 0120     		movs	r0, #1
 327 000c FFF7FEFF 		bl	SetAnalogRoutingPumps
 328              	.LVL23:
 281:Generated_Source\PSoC4/cyfitter_cfg.c **** 
 329              		.loc 1 281 0
 330              		@ sp needed
 331 0010 10BD     		pop	{r4, pc}
 332              	.L17:
 333 0012 C046     		.align	2
 334              	.L16:
 335 0014 00031A40 		.word	1075446528
 336              		.cfi_endproc
 337              	.LFE5:
 338              		.size	AnalogSetDefault, .-AnalogSetDefault
 339              		.section	.psocinit
 340              		.align	2
 341              		.global	cyfitter_cfg
 342              		.code	16
 343              		.thumb_func
 344              		.type	cyfitter_cfg, %function
 345              	cyfitter_cfg:
 346              	.LFB7:
 313:Generated_Source\PSoC4/cyfitter_cfg.c **** 
 314:Generated_Source\PSoC4/cyfitter_cfg.c **** 
 315:Generated_Source\PSoC4/cyfitter_cfg.c **** 
 316:Generated_Source\PSoC4/cyfitter_cfg.c **** 
 317:Generated_Source\PSoC4/cyfitter_cfg.c **** /*******************************************************************************
 318:Generated_Source\PSoC4/cyfitter_cfg.c **** * Function Name: cyfitter_cfg
 319:Generated_Source\PSoC4/cyfitter_cfg.c **** ********************************************************************************
 320:Generated_Source\PSoC4/cyfitter_cfg.c **** * Summary:
 321:Generated_Source\PSoC4/cyfitter_cfg.c **** *  This function is called by the start-up code for the selected device. It
 322:Generated_Source\PSoC4/cyfitter_cfg.c **** *  performs all of the necessary device configuration based on the design
 323:Generated_Source\PSoC4/cyfitter_cfg.c **** *  settings.  This includes settings from the Design Wide Resources (DWR) such
 324:Generated_Source\PSoC4/cyfitter_cfg.c **** *  as Clocks and Pins as well as any component configuration that is necessary.
 325:Generated_Source\PSoC4/cyfitter_cfg.c **** *
 326:Generated_Source\PSoC4/cyfitter_cfg.c **** * Parameters:
 327:Generated_Source\PSoC4/cyfitter_cfg.c **** *   void
 328:Generated_Source\PSoC4/cyfitter_cfg.c **** *
ARM GAS  C:\Users\ADMIN\AppData\Local\Temp\ccouXw6M.s 			page 13


 329:Generated_Source\PSoC4/cyfitter_cfg.c **** * Return:
 330:Generated_Source\PSoC4/cyfitter_cfg.c **** *   void
 331:Generated_Source\PSoC4/cyfitter_cfg.c **** *
 332:Generated_Source\PSoC4/cyfitter_cfg.c **** *******************************************************************************/
 333:Generated_Source\PSoC4/cyfitter_cfg.c **** CY_CFG_SECTION
 334:Generated_Source\PSoC4/cyfitter_cfg.c **** void cyfitter_cfg(void)
 335:Generated_Source\PSoC4/cyfitter_cfg.c **** {
 347              		.loc 1 335 0
 348              		.cfi_startproc
 349              		@ args = 0, pretend = 0, frame = 0
 350              		@ frame_needed = 0, uses_anonymous_args = 0
 351 00e0 10B5     		push	{r4, lr}
 352              		.cfi_def_cfa_offset 8
 353              		.cfi_offset 4, -8
 354              		.cfi_offset 14, -4
 336:Generated_Source\PSoC4/cyfitter_cfg.c **** 	/* Disable interrupts by default. Let user enable if/when they want. */
 337:Generated_Source\PSoC4/cyfitter_cfg.c **** 	CyGlobalIntDisable;
 355              		.loc 1 337 0
 356              		.syntax divided
 357              	@ 337 "Generated_Source\PSoC4\cyfitter_cfg.c" 1
 358 00e2 72B6     		CPSID   i
 359              	@ 0 "" 2
 338:Generated_Source\PSoC4/cyfitter_cfg.c **** 
 339:Generated_Source\PSoC4/cyfitter_cfg.c **** 	/* Enable the clock in the interrupt controller for the routed interrupts */
 340:Generated_Source\PSoC4/cyfitter_cfg.c **** 	CY_SET_REG8((void *)CYREG_UDB_UDBIF_INT_CLK_CTL, 0x01u);
 360              		.loc 1 340 0
 361              		.thumb
 362              		.syntax unified
 363 00e4 0122     		movs	r2, #1
 364 00e6 3C4B     		ldr	r3, .L21
 365 00e8 1A70     		strb	r2, [r3]
 366              	.LVL24:
 367              	.LBB3:
 341:Generated_Source\PSoC4/cyfitter_cfg.c **** 	{
 342:Generated_Source\PSoC4/cyfitter_cfg.c **** 		static const uint32 CYCODE cy_cfg_addr_table[] = {
 343:Generated_Source\PSoC4/cyfitter_cfg.c **** 			0x400F302Eu, /* Base address: 0x400F3000 Count: 46 */
 344:Generated_Source\PSoC4/cyfitter_cfg.c **** 			0x400F3126u, /* Base address: 0x400F3100 Count: 38 */
 345:Generated_Source\PSoC4/cyfitter_cfg.c **** 			0x400F3236u, /* Base address: 0x400F3200 Count: 54 */
 346:Generated_Source\PSoC4/cyfitter_cfg.c **** 			0x400F3329u, /* Base address: 0x400F3300 Count: 41 */
 347:Generated_Source\PSoC4/cyfitter_cfg.c **** 			0x400F4010u, /* Base address: 0x400F4000 Count: 16 */
 348:Generated_Source\PSoC4/cyfitter_cfg.c **** 			0x400F4110u, /* Base address: 0x400F4100 Count: 16 */
 349:Generated_Source\PSoC4/cyfitter_cfg.c **** 			0x400F430Fu, /* Base address: 0x400F4300 Count: 15 */
 350:Generated_Source\PSoC4/cyfitter_cfg.c **** 			0x400F6002u, /* Base address: 0x400F6000 Count: 2 */
 351:Generated_Source\PSoC4/cyfitter_cfg.c **** 		};
 352:Generated_Source\PSoC4/cyfitter_cfg.c **** 
 353:Generated_Source\PSoC4/cyfitter_cfg.c **** 		static const cy_cfg_addrvalue_t CYCODE cy_cfg_data_table[] = {
 354:Generated_Source\PSoC4/cyfitter_cfg.c **** 			{0x01u, 0x01u},
 355:Generated_Source\PSoC4/cyfitter_cfg.c **** 			{0x0Au, 0x02u},
 356:Generated_Source\PSoC4/cyfitter_cfg.c **** 			{0x18u, 0x03u},
 357:Generated_Source\PSoC4/cyfitter_cfg.c **** 			{0x1Bu, 0x03u},
 358:Generated_Source\PSoC4/cyfitter_cfg.c **** 			{0x2Eu, 0x01u},
 359:Generated_Source\PSoC4/cyfitter_cfg.c **** 			{0x2Fu, 0x04u},
 360:Generated_Source\PSoC4/cyfitter_cfg.c **** 			{0x30u, 0x04u},
 361:Generated_Source\PSoC4/cyfitter_cfg.c **** 			{0x32u, 0x03u},
 362:Generated_Source\PSoC4/cyfitter_cfg.c **** 			{0x33u, 0x01u},
 363:Generated_Source\PSoC4/cyfitter_cfg.c **** 			{0x35u, 0x04u},
 364:Generated_Source\PSoC4/cyfitter_cfg.c **** 			{0x36u, 0x03u},
ARM GAS  C:\Users\ADMIN\AppData\Local\Temp\ccouXw6M.s 			page 14


 365:Generated_Source\PSoC4/cyfitter_cfg.c **** 			{0x37u, 0x02u},
 366:Generated_Source\PSoC4/cyfitter_cfg.c **** 			{0x3Eu, 0x01u},
 367:Generated_Source\PSoC4/cyfitter_cfg.c **** 			{0x58u, 0x04u},
 368:Generated_Source\PSoC4/cyfitter_cfg.c **** 			{0x59u, 0x0Bu},
 369:Generated_Source\PSoC4/cyfitter_cfg.c **** 			{0x5Bu, 0x04u},
 370:Generated_Source\PSoC4/cyfitter_cfg.c **** 			{0x5Fu, 0x01u},
 371:Generated_Source\PSoC4/cyfitter_cfg.c **** 			{0x82u, 0x06u},
 372:Generated_Source\PSoC4/cyfitter_cfg.c **** 			{0x84u, 0x2Du},
 373:Generated_Source\PSoC4/cyfitter_cfg.c **** 			{0x86u, 0x52u},
 374:Generated_Source\PSoC4/cyfitter_cfg.c **** 			{0x87u, 0x04u},
 375:Generated_Source\PSoC4/cyfitter_cfg.c **** 			{0x8Au, 0x15u},
 376:Generated_Source\PSoC4/cyfitter_cfg.c **** 			{0x8Bu, 0x08u},
 377:Generated_Source\PSoC4/cyfitter_cfg.c **** 			{0x8Eu, 0x4Du},
 378:Generated_Source\PSoC4/cyfitter_cfg.c **** 			{0x93u, 0x10u},
 379:Generated_Source\PSoC4/cyfitter_cfg.c **** 			{0x95u, 0x01u},
 380:Generated_Source\PSoC4/cyfitter_cfg.c **** 			{0x97u, 0x1Eu},
 381:Generated_Source\PSoC4/cyfitter_cfg.c **** 			{0x9Eu, 0x2Du},
 382:Generated_Source\PSoC4/cyfitter_cfg.c **** 			{0xA6u, 0x2Du},
 383:Generated_Source\PSoC4/cyfitter_cfg.c **** 			{0xA9u, 0x03u},
 384:Generated_Source\PSoC4/cyfitter_cfg.c **** 			{0xADu, 0x02u},
 385:Generated_Source\PSoC4/cyfitter_cfg.c **** 			{0xAFu, 0x01u},
 386:Generated_Source\PSoC4/cyfitter_cfg.c **** 			{0xB0u, 0x03u},
 387:Generated_Source\PSoC4/cyfitter_cfg.c **** 			{0xB1u, 0x10u},
 388:Generated_Source\PSoC4/cyfitter_cfg.c **** 			{0xB2u, 0x04u},
 389:Generated_Source\PSoC4/cyfitter_cfg.c **** 			{0xB3u, 0x04u},
 390:Generated_Source\PSoC4/cyfitter_cfg.c **** 			{0xB4u, 0x18u},
 391:Generated_Source\PSoC4/cyfitter_cfg.c **** 			{0xB5u, 0x03u},
 392:Generated_Source\PSoC4/cyfitter_cfg.c **** 			{0xB6u, 0x60u},
 393:Generated_Source\PSoC4/cyfitter_cfg.c **** 			{0xB7u, 0x08u},
 394:Generated_Source\PSoC4/cyfitter_cfg.c **** 			{0xBAu, 0xA2u},
 395:Generated_Source\PSoC4/cyfitter_cfg.c **** 			{0xBFu, 0x45u},
 396:Generated_Source\PSoC4/cyfitter_cfg.c **** 			{0xD8u, 0x09u},
 397:Generated_Source\PSoC4/cyfitter_cfg.c **** 			{0xD9u, 0x09u},
 398:Generated_Source\PSoC4/cyfitter_cfg.c **** 			{0xDBu, 0x04u},
 399:Generated_Source\PSoC4/cyfitter_cfg.c **** 			{0xDFu, 0x01u},
 400:Generated_Source\PSoC4/cyfitter_cfg.c **** 			{0x00u, 0x10u},
 401:Generated_Source\PSoC4/cyfitter_cfg.c **** 			{0x05u, 0x55u},
 402:Generated_Source\PSoC4/cyfitter_cfg.c **** 			{0x0Bu, 0x08u},
 403:Generated_Source\PSoC4/cyfitter_cfg.c **** 			{0x0Eu, 0x01u},
 404:Generated_Source\PSoC4/cyfitter_cfg.c **** 			{0x10u, 0x02u},
 405:Generated_Source\PSoC4/cyfitter_cfg.c **** 			{0x17u, 0x08u},
 406:Generated_Source\PSoC4/cyfitter_cfg.c **** 			{0x18u, 0x10u},
 407:Generated_Source\PSoC4/cyfitter_cfg.c **** 			{0x19u, 0x80u},
 408:Generated_Source\PSoC4/cyfitter_cfg.c **** 			{0x1Au, 0x81u},
 409:Generated_Source\PSoC4/cyfitter_cfg.c **** 			{0x1Du, 0x55u},
 410:Generated_Source\PSoC4/cyfitter_cfg.c **** 			{0x1Fu, 0x04u},
 411:Generated_Source\PSoC4/cyfitter_cfg.c **** 			{0x21u, 0x28u},
 412:Generated_Source\PSoC4/cyfitter_cfg.c **** 			{0x23u, 0x01u},
 413:Generated_Source\PSoC4/cyfitter_cfg.c **** 			{0x24u, 0x02u},
 414:Generated_Source\PSoC4/cyfitter_cfg.c **** 			{0x26u, 0x09u},
 415:Generated_Source\PSoC4/cyfitter_cfg.c **** 			{0x27u, 0x08u},
 416:Generated_Source\PSoC4/cyfitter_cfg.c **** 			{0x2Au, 0x80u},
 417:Generated_Source\PSoC4/cyfitter_cfg.c **** 			{0x2Du, 0x80u},
 418:Generated_Source\PSoC4/cyfitter_cfg.c **** 			{0x2Fu, 0x04u},
 419:Generated_Source\PSoC4/cyfitter_cfg.c **** 			{0x31u, 0x20u},
 420:Generated_Source\PSoC4/cyfitter_cfg.c **** 			{0x37u, 0x09u},
 421:Generated_Source\PSoC4/cyfitter_cfg.c **** 			{0x3Bu, 0x01u},
ARM GAS  C:\Users\ADMIN\AppData\Local\Temp\ccouXw6M.s 			page 15


 422:Generated_Source\PSoC4/cyfitter_cfg.c **** 			{0x3Eu, 0x14u},
 423:Generated_Source\PSoC4/cyfitter_cfg.c **** 			{0x5Du, 0x80u},
 424:Generated_Source\PSoC4/cyfitter_cfg.c **** 			{0x68u, 0x02u},
 425:Generated_Source\PSoC4/cyfitter_cfg.c **** 			{0x6Eu, 0x14u},
 426:Generated_Source\PSoC4/cyfitter_cfg.c **** 			{0x6Fu, 0x01u},
 427:Generated_Source\PSoC4/cyfitter_cfg.c **** 			{0x7Bu, 0x80u},
 428:Generated_Source\PSoC4/cyfitter_cfg.c **** 			{0x7Fu, 0x08u},
 429:Generated_Source\PSoC4/cyfitter_cfg.c **** 			{0x85u, 0x08u},
 430:Generated_Source\PSoC4/cyfitter_cfg.c **** 			{0xC0u, 0xF2u},
 431:Generated_Source\PSoC4/cyfitter_cfg.c **** 			{0xC2u, 0x82u},
 432:Generated_Source\PSoC4/cyfitter_cfg.c **** 			{0xC4u, 0x21u},
 433:Generated_Source\PSoC4/cyfitter_cfg.c **** 			{0xCAu, 0x38u},
 434:Generated_Source\PSoC4/cyfitter_cfg.c **** 			{0xCCu, 0xC4u},
 435:Generated_Source\PSoC4/cyfitter_cfg.c **** 			{0xCEu, 0x61u},
 436:Generated_Source\PSoC4/cyfitter_cfg.c **** 			{0xD6u, 0x10u},
 437:Generated_Source\PSoC4/cyfitter_cfg.c **** 			{0xDEu, 0x21u},
 438:Generated_Source\PSoC4/cyfitter_cfg.c **** 			{0x00u, 0x0Eu},
 439:Generated_Source\PSoC4/cyfitter_cfg.c **** 			{0x02u, 0x90u},
 440:Generated_Source\PSoC4/cyfitter_cfg.c **** 			{0x04u, 0x03u},
 441:Generated_Source\PSoC4/cyfitter_cfg.c **** 			{0x06u, 0x04u},
 442:Generated_Source\PSoC4/cyfitter_cfg.c **** 			{0x08u, 0x01u},
 443:Generated_Source\PSoC4/cyfitter_cfg.c **** 			{0x0Au, 0xFCu},
 444:Generated_Source\PSoC4/cyfitter_cfg.c **** 			{0x17u, 0x01u},
 445:Generated_Source\PSoC4/cyfitter_cfg.c **** 			{0x18u, 0x0Au},
 446:Generated_Source\PSoC4/cyfitter_cfg.c **** 			{0x1Au, 0x54u},
 447:Generated_Source\PSoC4/cyfitter_cfg.c **** 			{0x1Cu, 0x24u},
 448:Generated_Source\PSoC4/cyfitter_cfg.c **** 			{0x1Eu, 0x0Au},
 449:Generated_Source\PSoC4/cyfitter_cfg.c **** 			{0x28u, 0x04u},
 450:Generated_Source\PSoC4/cyfitter_cfg.c **** 			{0x2Au, 0xFAu},
 451:Generated_Source\PSoC4/cyfitter_cfg.c **** 			{0x30u, 0xE0u},
 452:Generated_Source\PSoC4/cyfitter_cfg.c **** 			{0x32u, 0x07u},
 453:Generated_Source\PSoC4/cyfitter_cfg.c **** 			{0x33u, 0x01u},
 454:Generated_Source\PSoC4/cyfitter_cfg.c **** 			{0x34u, 0x80u},
 455:Generated_Source\PSoC4/cyfitter_cfg.c **** 			{0x36u, 0x18u},
 456:Generated_Source\PSoC4/cyfitter_cfg.c **** 			{0x39u, 0x20u},
 457:Generated_Source\PSoC4/cyfitter_cfg.c **** 			{0x3Au, 0xAAu},
 458:Generated_Source\PSoC4/cyfitter_cfg.c **** 			{0x3Bu, 0x08u},
 459:Generated_Source\PSoC4/cyfitter_cfg.c **** 			{0x58u, 0x04u},
 460:Generated_Source\PSoC4/cyfitter_cfg.c **** 			{0x59u, 0x04u},
 461:Generated_Source\PSoC4/cyfitter_cfg.c **** 			{0x5Fu, 0x01u},
 462:Generated_Source\PSoC4/cyfitter_cfg.c **** 			{0x80u, 0x05u},
 463:Generated_Source\PSoC4/cyfitter_cfg.c **** 			{0x82u, 0x02u},
 464:Generated_Source\PSoC4/cyfitter_cfg.c **** 			{0x83u, 0x03u},
 465:Generated_Source\PSoC4/cyfitter_cfg.c **** 			{0x84u, 0x0Eu},
 466:Generated_Source\PSoC4/cyfitter_cfg.c **** 			{0x86u, 0x90u},
 467:Generated_Source\PSoC4/cyfitter_cfg.c **** 			{0x8Eu, 0xFEu},
 468:Generated_Source\PSoC4/cyfitter_cfg.c **** 			{0x8Fu, 0x01u},
 469:Generated_Source\PSoC4/cyfitter_cfg.c **** 			{0x90u, 0x0Cu},
 470:Generated_Source\PSoC4/cyfitter_cfg.c **** 			{0x92u, 0x52u},
 471:Generated_Source\PSoC4/cyfitter_cfg.c **** 			{0x94u, 0x22u},
 472:Generated_Source\PSoC4/cyfitter_cfg.c **** 			{0x96u, 0x0Cu},
 473:Generated_Source\PSoC4/cyfitter_cfg.c **** 			{0x97u, 0x07u},
 474:Generated_Source\PSoC4/cyfitter_cfg.c **** 			{0x9Eu, 0xFEu},
 475:Generated_Source\PSoC4/cyfitter_cfg.c **** 			{0xA4u, 0x02u},
 476:Generated_Source\PSoC4/cyfitter_cfg.c **** 			{0xA6u, 0xFCu},
 477:Generated_Source\PSoC4/cyfitter_cfg.c **** 			{0xA8u, 0x01u},
 478:Generated_Source\PSoC4/cyfitter_cfg.c **** 			{0xAAu, 0xFAu},
ARM GAS  C:\Users\ADMIN\AppData\Local\Temp\ccouXw6M.s 			page 16


 479:Generated_Source\PSoC4/cyfitter_cfg.c **** 			{0xB0u, 0x80u},
 480:Generated_Source\PSoC4/cyfitter_cfg.c **** 			{0xB1u, 0x02u},
 481:Generated_Source\PSoC4/cyfitter_cfg.c **** 			{0xB2u, 0x18u},
 482:Generated_Source\PSoC4/cyfitter_cfg.c **** 			{0xB4u, 0xE0u},
 483:Generated_Source\PSoC4/cyfitter_cfg.c **** 			{0xB5u, 0x01u},
 484:Generated_Source\PSoC4/cyfitter_cfg.c **** 			{0xB6u, 0x07u},
 485:Generated_Source\PSoC4/cyfitter_cfg.c **** 			{0xB7u, 0x04u},
 486:Generated_Source\PSoC4/cyfitter_cfg.c **** 			{0xB9u, 0x08u},
 487:Generated_Source\PSoC4/cyfitter_cfg.c **** 			{0xBAu, 0xAAu},
 488:Generated_Source\PSoC4/cyfitter_cfg.c **** 			{0xBBu, 0xA2u},
 489:Generated_Source\PSoC4/cyfitter_cfg.c **** 			{0xD8u, 0x09u},
 490:Generated_Source\PSoC4/cyfitter_cfg.c **** 			{0xD9u, 0x09u},
 491:Generated_Source\PSoC4/cyfitter_cfg.c **** 			{0xDFu, 0x01u},
 492:Generated_Source\PSoC4/cyfitter_cfg.c **** 			{0x00u, 0x40u},
 493:Generated_Source\PSoC4/cyfitter_cfg.c **** 			{0x03u, 0xA0u},
 494:Generated_Source\PSoC4/cyfitter_cfg.c **** 			{0x05u, 0x05u},
 495:Generated_Source\PSoC4/cyfitter_cfg.c **** 			{0x07u, 0x08u},
 496:Generated_Source\PSoC4/cyfitter_cfg.c **** 			{0x0Au, 0x50u},
 497:Generated_Source\PSoC4/cyfitter_cfg.c **** 			{0x0Bu, 0x01u},
 498:Generated_Source\PSoC4/cyfitter_cfg.c **** 			{0x0Eu, 0x05u},
 499:Generated_Source\PSoC4/cyfitter_cfg.c **** 			{0x12u, 0x20u},
 500:Generated_Source\PSoC4/cyfitter_cfg.c **** 			{0x13u, 0x20u},
 501:Generated_Source\PSoC4/cyfitter_cfg.c **** 			{0x17u, 0x10u},
 502:Generated_Source\PSoC4/cyfitter_cfg.c **** 			{0x1Au, 0x50u},
 503:Generated_Source\PSoC4/cyfitter_cfg.c **** 			{0x1Bu, 0xA0u},
 504:Generated_Source\PSoC4/cyfitter_cfg.c **** 			{0x1Du, 0x05u},
 505:Generated_Source\PSoC4/cyfitter_cfg.c **** 			{0x1Eu, 0x05u},
 506:Generated_Source\PSoC4/cyfitter_cfg.c **** 			{0x1Fu, 0x08u},
 507:Generated_Source\PSoC4/cyfitter_cfg.c **** 			{0x20u, 0x40u},
 508:Generated_Source\PSoC4/cyfitter_cfg.c **** 			{0x22u, 0x28u},
 509:Generated_Source\PSoC4/cyfitter_cfg.c **** 			{0x23u, 0x21u},
 510:Generated_Source\PSoC4/cyfitter_cfg.c **** 			{0x27u, 0x18u},
 511:Generated_Source\PSoC4/cyfitter_cfg.c **** 			{0x32u, 0x08u},
 512:Generated_Source\PSoC4/cyfitter_cfg.c **** 			{0x37u, 0x08u},
 513:Generated_Source\PSoC4/cyfitter_cfg.c **** 			{0x38u, 0x40u},
 514:Generated_Source\PSoC4/cyfitter_cfg.c **** 			{0x3Bu, 0x01u},
 515:Generated_Source\PSoC4/cyfitter_cfg.c **** 			{0x7Bu, 0x08u},
 516:Generated_Source\PSoC4/cyfitter_cfg.c **** 			{0x80u, 0x01u},
 517:Generated_Source\PSoC4/cyfitter_cfg.c **** 			{0x90u, 0x02u},
 518:Generated_Source\PSoC4/cyfitter_cfg.c **** 			{0xA7u, 0x88u},
 519:Generated_Source\PSoC4/cyfitter_cfg.c **** 			{0xAAu, 0x40u},
 520:Generated_Source\PSoC4/cyfitter_cfg.c **** 			{0xAEu, 0x80u},
 521:Generated_Source\PSoC4/cyfitter_cfg.c **** 			{0xB2u, 0x08u},
 522:Generated_Source\PSoC4/cyfitter_cfg.c **** 			{0xB6u, 0x01u},
 523:Generated_Source\PSoC4/cyfitter_cfg.c **** 			{0xC0u, 0x7Du},
 524:Generated_Source\PSoC4/cyfitter_cfg.c **** 			{0xC2u, 0xCDu},
 525:Generated_Source\PSoC4/cyfitter_cfg.c **** 			{0xC4u, 0x46u},
 526:Generated_Source\PSoC4/cyfitter_cfg.c **** 			{0xCCu, 0x42u},
 527:Generated_Source\PSoC4/cyfitter_cfg.c **** 			{0xCEu, 0x09u},
 528:Generated_Source\PSoC4/cyfitter_cfg.c **** 			{0xDEu, 0x04u},
 529:Generated_Source\PSoC4/cyfitter_cfg.c **** 			{0xE4u, 0x04u},
 530:Generated_Source\PSoC4/cyfitter_cfg.c **** 			{0xE6u, 0x28u},
 531:Generated_Source\PSoC4/cyfitter_cfg.c **** 			{0xEAu, 0x10u},
 532:Generated_Source\PSoC4/cyfitter_cfg.c **** 			{0xEEu, 0x84u},
 533:Generated_Source\PSoC4/cyfitter_cfg.c **** 			{0x13u, 0x04u},
 534:Generated_Source\PSoC4/cyfitter_cfg.c **** 			{0x2Eu, 0x08u},
 535:Generated_Source\PSoC4/cyfitter_cfg.c **** 			{0x52u, 0x80u},
ARM GAS  C:\Users\ADMIN\AppData\Local\Temp\ccouXw6M.s 			page 17


 536:Generated_Source\PSoC4/cyfitter_cfg.c **** 			{0x54u, 0x02u},
 537:Generated_Source\PSoC4/cyfitter_cfg.c **** 			{0x56u, 0x80u},
 538:Generated_Source\PSoC4/cyfitter_cfg.c **** 			{0x5Fu, 0x02u},
 539:Generated_Source\PSoC4/cyfitter_cfg.c **** 			{0x6Fu, 0x01u},
 540:Generated_Source\PSoC4/cyfitter_cfg.c **** 			{0x72u, 0x08u},
 541:Generated_Source\PSoC4/cyfitter_cfg.c **** 			{0x87u, 0x01u},
 542:Generated_Source\PSoC4/cyfitter_cfg.c **** 			{0xC4u, 0x10u},
 543:Generated_Source\PSoC4/cyfitter_cfg.c **** 			{0xCAu, 0x80u},
 544:Generated_Source\PSoC4/cyfitter_cfg.c **** 			{0xD4u, 0x60u},
 545:Generated_Source\PSoC4/cyfitter_cfg.c **** 			{0xD6u, 0xA0u},
 546:Generated_Source\PSoC4/cyfitter_cfg.c **** 			{0xDAu, 0x80u},
 547:Generated_Source\PSoC4/cyfitter_cfg.c **** 			{0xDCu, 0x20u},
 548:Generated_Source\PSoC4/cyfitter_cfg.c **** 			{0xE2u, 0x40u},
 549:Generated_Source\PSoC4/cyfitter_cfg.c **** 			{0x5Bu, 0x40u},
 550:Generated_Source\PSoC4/cyfitter_cfg.c **** 			{0x63u, 0x02u},
 551:Generated_Source\PSoC4/cyfitter_cfg.c **** 			{0x87u, 0x01u},
 552:Generated_Source\PSoC4/cyfitter_cfg.c **** 			{0x8Au, 0x80u},
 553:Generated_Source\PSoC4/cyfitter_cfg.c **** 			{0x9Bu, 0x40u},
 554:Generated_Source\PSoC4/cyfitter_cfg.c **** 			{0x9Eu, 0x80u},
 555:Generated_Source\PSoC4/cyfitter_cfg.c **** 			{0xAAu, 0x80u},
 556:Generated_Source\PSoC4/cyfitter_cfg.c **** 			{0xABu, 0x40u},
 557:Generated_Source\PSoC4/cyfitter_cfg.c **** 			{0xAFu, 0x04u},
 558:Generated_Source\PSoC4/cyfitter_cfg.c **** 			{0xB0u, 0x02u},
 559:Generated_Source\PSoC4/cyfitter_cfg.c **** 			{0xB7u, 0x02u},
 560:Generated_Source\PSoC4/cyfitter_cfg.c **** 			{0xD4u, 0x80u},
 561:Generated_Source\PSoC4/cyfitter_cfg.c **** 			{0xD6u, 0x40u},
 562:Generated_Source\PSoC4/cyfitter_cfg.c **** 			{0xE6u, 0x10u},
 563:Generated_Source\PSoC4/cyfitter_cfg.c **** 			{0xE8u, 0x40u},
 564:Generated_Source\PSoC4/cyfitter_cfg.c **** 			{0xEEu, 0xA0u},
 565:Generated_Source\PSoC4/cyfitter_cfg.c **** 			{0x18u, 0x20u},
 566:Generated_Source\PSoC4/cyfitter_cfg.c **** 			{0x1Au, 0x08u},
 567:Generated_Source\PSoC4/cyfitter_cfg.c **** 			{0x1Cu, 0x80u},
 568:Generated_Source\PSoC4/cyfitter_cfg.c **** 			{0x1Fu, 0x20u},
 569:Generated_Source\PSoC4/cyfitter_cfg.c **** 			{0x50u, 0x10u},
 570:Generated_Source\PSoC4/cyfitter_cfg.c **** 			{0x67u, 0x02u},
 571:Generated_Source\PSoC4/cyfitter_cfg.c **** 			{0x83u, 0x01u},
 572:Generated_Source\PSoC4/cyfitter_cfg.c **** 			{0x86u, 0x04u},
 573:Generated_Source\PSoC4/cyfitter_cfg.c **** 			{0x88u, 0x40u},
 574:Generated_Source\PSoC4/cyfitter_cfg.c **** 			{0xA7u, 0x20u},
 575:Generated_Source\PSoC4/cyfitter_cfg.c **** 			{0xABu, 0x20u},
 576:Generated_Source\PSoC4/cyfitter_cfg.c **** 			{0xC6u, 0x0Fu},
 577:Generated_Source\PSoC4/cyfitter_cfg.c **** 			{0xD4u, 0x04u},
 578:Generated_Source\PSoC4/cyfitter_cfg.c **** 			{0xD6u, 0x01u},
 579:Generated_Source\PSoC4/cyfitter_cfg.c **** 			{0xE6u, 0x04u},
 580:Generated_Source\PSoC4/cyfitter_cfg.c **** 			{0x01u, 0x01u},
 581:Generated_Source\PSoC4/cyfitter_cfg.c **** 			{0x10u, 0x01u},
 582:Generated_Source\PSoC4/cyfitter_cfg.c **** 		};
 583:Generated_Source\PSoC4/cyfitter_cfg.c **** 
 584:Generated_Source\PSoC4/cyfitter_cfg.c **** 
 585:Generated_Source\PSoC4/cyfitter_cfg.c **** 
 586:Generated_Source\PSoC4/cyfitter_cfg.c **** 		CYPACKED typedef struct {
 587:Generated_Source\PSoC4/cyfitter_cfg.c **** 			void CYFAR *address;
 588:Generated_Source\PSoC4/cyfitter_cfg.c **** 			uint16 size;
 589:Generated_Source\PSoC4/cyfitter_cfg.c **** 		} CYPACKED_ATTR cfg_memset_t;
 590:Generated_Source\PSoC4/cyfitter_cfg.c **** 
 591:Generated_Source\PSoC4/cyfitter_cfg.c **** 		static const cfg_memset_t CYCODE cfg_memset_list[] = {
 592:Generated_Source\PSoC4/cyfitter_cfg.c **** 			/* address, size */
ARM GAS  C:\Users\ADMIN\AppData\Local\Temp\ccouXw6M.s 			page 18


 593:Generated_Source\PSoC4/cyfitter_cfg.c **** 			{(void CYFAR *)(CYDEV_UDB_P0_U0_BASE), 1024u},
 594:Generated_Source\PSoC4/cyfitter_cfg.c **** 			{(void CYFAR *)(CYDEV_UDB_DSI0_BASE), 1024u},
 595:Generated_Source\PSoC4/cyfitter_cfg.c **** 		};
 596:Generated_Source\PSoC4/cyfitter_cfg.c **** 
 597:Generated_Source\PSoC4/cyfitter_cfg.c **** 		uint8 CYDATA i;
 598:Generated_Source\PSoC4/cyfitter_cfg.c **** 
 599:Generated_Source\PSoC4/cyfitter_cfg.c **** 		/* Zero out critical memory blocks before beginning configuration */
 600:Generated_Source\PSoC4/cyfitter_cfg.c **** 		for (i = 0u; i < (sizeof(cfg_memset_list)/sizeof(cfg_memset_list[0])); i++)
 368              		.loc 1 600 0
 369 00ea 0024     		movs	r4, #0
 370 00ec 0FE0     		b	.L19
 371              	.LVL25:
 372              	.L20:
 373              	.LBB4:
 601:Generated_Source\PSoC4/cyfitter_cfg.c **** 		{
 602:Generated_Source\PSoC4/cyfitter_cfg.c **** 			const cfg_memset_t CYCODE * CYDATA ms = &cfg_memset_list[i];
 603:Generated_Source\PSoC4/cyfitter_cfg.c **** 			CYMEMZERO(ms->address, (size_t)(uint32)(ms->size));
 374              		.loc 1 603 0 discriminator 3
 375 00ee 3B48     		ldr	r0, .L21+4
 376 00f0 6200     		lsls	r2, r4, #1
 377 00f2 1319     		adds	r3, r2, r4
 378 00f4 5900     		lsls	r1, r3, #1
 379 00f6 0B00     		movs	r3, r1
 380 00f8 4118     		adds	r1, r0, r1
 381 00fa 8988     		ldrh	r1, [r1, #4]
 382 00fc 1A5A     		ldrh	r2, [r3, r0]
 383 00fe C318     		adds	r3, r0, r3
 384 0100 5888     		ldrh	r0, [r3, #2]
 385 0102 0004     		lsls	r0, r0, #16
 386 0104 1043     		orrs	r0, r2
 387 0106 FFF7FEFF 		bl	CYMEMZERO
 388              	.LVL26:
 389              	.LBE4:
 600:Generated_Source\PSoC4/cyfitter_cfg.c **** 		{
 390              		.loc 1 600 0 discriminator 3
 391 010a 0134     		adds	r4, r4, #1
 392              	.LVL27:
 393 010c E4B2     		uxtb	r4, r4
 394              	.LVL28:
 395              	.L19:
 600:Generated_Source\PSoC4/cyfitter_cfg.c **** 		{
 396              		.loc 1 600 0 is_stmt 0 discriminator 1
 397 010e 012C     		cmp	r4, #1
 398 0110 EDD9     		bls	.L20
 604:Generated_Source\PSoC4/cyfitter_cfg.c **** 		}
 605:Generated_Source\PSoC4/cyfitter_cfg.c **** 
 606:Generated_Source\PSoC4/cyfitter_cfg.c **** 		cfg_write_bytes32(cy_cfg_addr_table, cy_cfg_data_table);
 399              		.loc 1 606 0 is_stmt 1
 400 0112 3249     		ldr	r1, .L21+4
 401 0114 0C31     		adds	r1, r1, #12
 402 0116 3248     		ldr	r0, .L21+8
 403 0118 5430     		adds	r0, r0, #84
 404 011a FFF7FEFF 		bl	cfg_write_bytes32
 405              	.LVL29:
 607:Generated_Source\PSoC4/cyfitter_cfg.c **** 
 608:Generated_Source\PSoC4/cyfitter_cfg.c **** 		/* HSIOM Starting address: CYDEV_HSIOM_BASE */
 609:Generated_Source\PSoC4/cyfitter_cfg.c **** 		CY_SET_REG32((void *)(CYDEV_HSIOM_BASE), 0x30993303u);
ARM GAS  C:\Users\ADMIN\AppData\Local\Temp\ccouXw6M.s 			page 19


 406              		.loc 1 609 0
 407 011e 314A     		ldr	r2, .L21+12
 408 0120 314B     		ldr	r3, .L21+16
 409 0122 1A60     		str	r2, [r3]
 610:Generated_Source\PSoC4/cyfitter_cfg.c **** 		CY_SET_REG32((void *)(CYREG_HSIOM_PORT_SEL1), 0x03000060u);
 410              		.loc 1 610 0
 411 0124 314A     		ldr	r2, .L21+20
 412 0126 324B     		ldr	r3, .L21+24
 413 0128 1A60     		str	r2, [r3]
 611:Generated_Source\PSoC4/cyfitter_cfg.c **** 		CY_SET_REG32((void *)(CYREG_HSIOM_PORT_SEL3), 0x3000EE30u);
 414              		.loc 1 611 0
 415 012a 324A     		ldr	r2, .L21+28
 416 012c 324B     		ldr	r3, .L21+32
 417 012e 1A60     		str	r2, [r3]
 612:Generated_Source\PSoC4/cyfitter_cfg.c **** 		CY_SET_REG32((void *)(CYREG_HSIOM_PORT_SEL4), 0x000000EEu);
 418              		.loc 1 612 0
 419 0130 EE22     		movs	r2, #238
 420 0132 324B     		ldr	r3, .L21+36
 421 0134 1A60     		str	r2, [r3]
 613:Generated_Source\PSoC4/cyfitter_cfg.c **** 
 614:Generated_Source\PSoC4/cyfitter_cfg.c **** 		/* UDB_PA_0 Starting address: CYDEV_UDB_PA0_BASE */
 615:Generated_Source\PSoC4/cyfitter_cfg.c **** 		CY_SET_REG32((void *)(CYDEV_UDB_PA0_BASE), 0x00990000u);
 422              		.loc 1 615 0
 423 0136 9923     		movs	r3, #153
 424 0138 1B04     		lsls	r3, r3, #16
 425 013a 314A     		ldr	r2, .L21+40
 426 013c 1360     		str	r3, [r2]
 616:Generated_Source\PSoC4/cyfitter_cfg.c **** 		CY_SET_REG32((void *)(CYREG_UDB_PA0_CFG8), 0x404B0000u);
 427              		.loc 1 616 0
 428 013e 3149     		ldr	r1, .L21+44
 429 0140 314A     		ldr	r2, .L21+48
 430 0142 1160     		str	r1, [r2]
 617:Generated_Source\PSoC4/cyfitter_cfg.c **** 
 618:Generated_Source\PSoC4/cyfitter_cfg.c **** 		/* UDB_PA_1 Starting address: CYDEV_UDB_PA1_BASE */
 619:Generated_Source\PSoC4/cyfitter_cfg.c **** 		CY_SET_REG32((void *)(CYDEV_UDB_PA1_BASE), 0x00990000u);
 431              		.loc 1 619 0
 432 0144 314A     		ldr	r2, .L21+52
 433 0146 1360     		str	r3, [r2]
 620:Generated_Source\PSoC4/cyfitter_cfg.c **** 		CY_SET_REG32((void *)(CYREG_UDB_PA1_CFG8), 0x45080000u);
 434              		.loc 1 620 0
 435 0148 3149     		ldr	r1, .L21+56
 436 014a 324A     		ldr	r2, .L21+60
 437 014c 1160     		str	r1, [r2]
 621:Generated_Source\PSoC4/cyfitter_cfg.c **** 
 622:Generated_Source\PSoC4/cyfitter_cfg.c **** 		/* UDB_PA_2 Starting address: CYDEV_UDB_PA2_BASE */
 623:Generated_Source\PSoC4/cyfitter_cfg.c **** 		CY_SET_REG32((void *)(CYDEV_UDB_PA2_BASE), 0x00990000u);
 438              		.loc 1 623 0
 439 014e 324A     		ldr	r2, .L21+64
 440 0150 1360     		str	r3, [r2]
 624:Generated_Source\PSoC4/cyfitter_cfg.c **** 
 625:Generated_Source\PSoC4/cyfitter_cfg.c **** 		/* UDB_PA_3 Starting address: CYDEV_UDB_PA3_BASE */
 626:Generated_Source\PSoC4/cyfitter_cfg.c **** 		CY_SET_REG32((void *)(CYDEV_UDB_PA3_BASE), 0x00990000u);
 441              		.loc 1 626 0
 442 0152 324A     		ldr	r2, .L21+68
 443 0154 1360     		str	r3, [r2]
 627:Generated_Source\PSoC4/cyfitter_cfg.c **** 		CY_SET_REG32((void *)(CYREG_UDB_PA3_CFG8), 0x40510000u);
 444              		.loc 1 627 0
ARM GAS  C:\Users\ADMIN\AppData\Local\Temp\ccouXw6M.s 			page 20


 445 0156 324A     		ldr	r2, .L21+72
 446 0158 324B     		ldr	r3, .L21+76
 447 015a 1A60     		str	r2, [r3]
 628:Generated_Source\PSoC4/cyfitter_cfg.c **** 
 629:Generated_Source\PSoC4/cyfitter_cfg.c **** 		/* INT_SELECT Starting address: CYDEV_CPUSS_INTR_SELECT */
 630:Generated_Source\PSoC4/cyfitter_cfg.c **** 		CY_SET_REG32((void *)(CYREG_CPUSS_INTR_SELECT), 0x00000005u);
 448              		.loc 1 630 0
 449 015c 0522     		movs	r2, #5
 450 015e 324B     		ldr	r3, .L21+80
 451 0160 1A60     		str	r2, [r3]
 631:Generated_Source\PSoC4/cyfitter_cfg.c **** 
 632:Generated_Source\PSoC4/cyfitter_cfg.c **** 		/* INT_CONFIG Starting address: CYDEV_UDB_INT_CFG */
 633:Generated_Source\PSoC4/cyfitter_cfg.c **** 		CY_SET_REG32((void *)(CYREG_UDB_INT_CFG), 0x00000002u);
 452              		.loc 1 633 0
 453 0162 0221     		movs	r1, #2
 454 0164 314B     		ldr	r3, .L21+84
 455 0166 1960     		str	r1, [r3]
 634:Generated_Source\PSoC4/cyfitter_cfg.c **** 
 635:Generated_Source\PSoC4/cyfitter_cfg.c **** 		/* Enable UDB array and digital routing */
 636:Generated_Source\PSoC4/cyfitter_cfg.c **** 		CY_SET_XTND_REG8((void *)CYREG_UDB_UDBIF_WAIT_CFG, (uint8)((CY_GET_XTND_REG8((void *)CYREG_UDB_UD
 456              		.loc 1 636 0
 457 0168 3148     		ldr	r0, .L21+88
 458 016a 0378     		ldrb	r3, [r0]
 459 016c 3732     		adds	r2, r2, #55
 460 016e 9343     		bics	r3, r2
 461 0170 1422     		movs	r2, #20
 462 0172 1343     		orrs	r3, r2
 463 0174 DBB2     		uxtb	r3, r3
 464 0176 0370     		strb	r3, [r0]
 637:Generated_Source\PSoC4/cyfitter_cfg.c **** 		CY_SET_XTND_REG8((void *)CYREG_UDB_UDBIF_BANK_CTL, (uint8)(CY_GET_XTND_REG8((void *)CYREG_UDB_UDB
 465              		.loc 1 637 0
 466 0178 2E4A     		ldr	r2, .L21+92
 467 017a 1078     		ldrb	r0, [r2]
 468 017c 1623     		movs	r3, #22
 469 017e 0343     		orrs	r3, r0
 470 0180 DBB2     		uxtb	r3, r3
 471 0182 1370     		strb	r3, [r2]
 472              	.LBE3:
 638:Generated_Source\PSoC4/cyfitter_cfg.c **** 	}
 639:Generated_Source\PSoC4/cyfitter_cfg.c **** 
 640:Generated_Source\PSoC4/cyfitter_cfg.c **** 	/* Perform second pass device configuration. These items must be configured in specific order afte
 641:Generated_Source\PSoC4/cyfitter_cfg.c **** 	/* IOPINS0_0 Starting address: CYDEV_PRT0_BASE */
 642:Generated_Source\PSoC4/cyfitter_cfg.c **** 	CY_SET_REG32((void *)(CYDEV_PRT0_BASE), 0x000000AFu);
 473              		.loc 1 642 0
 474 0184 AF22     		movs	r2, #175
 475 0186 2C4B     		ldr	r3, .L21+96
 476 0188 1A60     		str	r2, [r3]
 643:Generated_Source\PSoC4/cyfitter_cfg.c **** 	CY_SET_REG32((void *)(CYREG_PRT0_PC), 0x00DB1D96u);
 477              		.loc 1 643 0
 478 018a 2C4A     		ldr	r2, .L21+100
 479 018c 2C4B     		ldr	r3, .L21+104
 480 018e 1A60     		str	r2, [r3]
 644:Generated_Source\PSoC4/cyfitter_cfg.c **** 	CY_SET_REG32((void *)(CYREG_PRT0_INTCFG), 0x00000008u);
 481              		.loc 1 644 0
 482 0190 0822     		movs	r2, #8
 483 0192 2C4B     		ldr	r3, .L21+108
 484 0194 1A60     		str	r2, [r3]
ARM GAS  C:\Users\ADMIN\AppData\Local\Temp\ccouXw6M.s 			page 21


 645:Generated_Source\PSoC4/cyfitter_cfg.c **** 	CY_SET_REG32((void *)(CYREG_PRT0_PC2), 0x00000020u);
 485              		.loc 1 645 0
 486 0196 1832     		adds	r2, r2, #24
 487 0198 2B4B     		ldr	r3, .L21+112
 488 019a 1A60     		str	r2, [r3]
 646:Generated_Source\PSoC4/cyfitter_cfg.c **** 
 647:Generated_Source\PSoC4/cyfitter_cfg.c **** 	/* IOPINS0_1 Starting address: CYDEV_PRT1_BASE */
 648:Generated_Source\PSoC4/cyfitter_cfg.c **** 	CY_SET_REG32((void *)(CYDEV_PRT1_BASE), 0x00000042u);
 489              		.loc 1 648 0
 490 019c 2232     		adds	r2, r2, #34
 491 019e 2B4B     		ldr	r3, .L21+116
 492 01a0 1A60     		str	r2, [r3]
 649:Generated_Source\PSoC4/cyfitter_cfg.c **** 	CY_SET_REG32((void *)(CYREG_PRT1_PC), 0x00180006u);
 493              		.loc 1 649 0
 494 01a2 2B4A     		ldr	r2, .L21+120
 495 01a4 2B4B     		ldr	r3, .L21+124
 496 01a6 1A60     		str	r2, [r3]
 650:Generated_Source\PSoC4/cyfitter_cfg.c **** 	CY_SET_REG32((void *)(CYREG_PRT1_PC2), 0x00000002u);
 497              		.loc 1 650 0
 498 01a8 2B4B     		ldr	r3, .L21+128
 499 01aa 1960     		str	r1, [r3]
 651:Generated_Source\PSoC4/cyfitter_cfg.c **** 
 652:Generated_Source\PSoC4/cyfitter_cfg.c **** 	/* IOPINS0_2 Starting address: CYDEV_PRT2_BASE */
 653:Generated_Source\PSoC4/cyfitter_cfg.c **** 	CY_SET_REG32((void *)(CYREG_PRT2_PC), 0x00C00000u);
 500              		.loc 1 653 0
 501 01ac C022     		movs	r2, #192
 502 01ae 1204     		lsls	r2, r2, #16
 503 01b0 2A4B     		ldr	r3, .L21+132
 504 01b2 1A60     		str	r2, [r3]
 654:Generated_Source\PSoC4/cyfitter_cfg.c **** 
 655:Generated_Source\PSoC4/cyfitter_cfg.c **** 	/* IOPINS0_3 Starting address: CYDEV_PRT3_BASE */
 656:Generated_Source\PSoC4/cyfitter_cfg.c **** 	CY_SET_REG32((void *)(CYDEV_PRT3_BASE), 0x00000082u);
 505              		.loc 1 656 0
 506 01b4 8222     		movs	r2, #130
 507 01b6 2A4B     		ldr	r3, .L21+136
 508 01b8 1A60     		str	r2, [r3]
 657:Generated_Source\PSoC4/cyfitter_cfg.c **** 	CY_SET_REG32((void *)(CYREG_PRT3_PC), 0x00C30DB0u);
 509              		.loc 1 657 0
 510 01ba 2A4A     		ldr	r2, .L21+140
 511 01bc 2A4B     		ldr	r3, .L21+144
 512 01be 1A60     		str	r2, [r3]
 658:Generated_Source\PSoC4/cyfitter_cfg.c **** 
 659:Generated_Source\PSoC4/cyfitter_cfg.c **** 	/* IOPINS0_4 Starting address: CYDEV_PRT4_BASE */
 660:Generated_Source\PSoC4/cyfitter_cfg.c **** 	CY_SET_REG32((void *)(CYDEV_PRT4_BASE), 0x00000003u);
 513              		.loc 1 660 0
 514 01c0 0322     		movs	r2, #3
 515 01c2 2A4B     		ldr	r3, .L21+148
 516 01c4 1A60     		str	r2, [r3]
 661:Generated_Source\PSoC4/cyfitter_cfg.c **** 	CY_SET_REG32((void *)(CYREG_PRT4_PC), 0x00000024u);
 517              		.loc 1 661 0
 518 01c6 2132     		adds	r2, r2, #33
 519 01c8 294B     		ldr	r3, .L21+152
 520 01ca 1A60     		str	r2, [r3]
 662:Generated_Source\PSoC4/cyfitter_cfg.c **** 
 663:Generated_Source\PSoC4/cyfitter_cfg.c **** 
 664:Generated_Source\PSoC4/cyfitter_cfg.c **** 	/* Setup clocks based on selections from Clock DWR */
 665:Generated_Source\PSoC4/cyfitter_cfg.c **** 	ClockSetup();
ARM GAS  C:\Users\ADMIN\AppData\Local\Temp\ccouXw6M.s 			page 22


 521              		.loc 1 665 0
 522 01cc FFF718FF 		bl	ClockSetup
 523              	.LVL30:
 666:Generated_Source\PSoC4/cyfitter_cfg.c **** 
 667:Generated_Source\PSoC4/cyfitter_cfg.c **** 	/* Perform basic analog initialization to defaults */
 668:Generated_Source\PSoC4/cyfitter_cfg.c **** 	AnalogSetDefault();
 524              		.loc 1 668 0
 525 01d0 FFF7FEFF 		bl	AnalogSetDefault
 526              	.LVL31:
 669:Generated_Source\PSoC4/cyfitter_cfg.c **** 
 670:Generated_Source\PSoC4/cyfitter_cfg.c **** }
 527              		.loc 1 670 0
 528              		@ sp needed
 529              	.LVL32:
 530 01d4 10BD     		pop	{r4, pc}
 531              	.L22:
 532 01d6 C046     		.align	2
 533              	.L21:
 534 01d8 1C700F40 		.word	1074753564
 535 01dc 00000000 		.word	.LANCHOR0
 536 01e0 80010000 		.word	.LANCHOR1
 537 01e4 03339930 		.word	815346435
 538 01e8 00000140 		.word	1073807360
 539 01ec 60000003 		.word	50331744
 540 01f0 04000140 		.word	1073807364
 541 01f4 30EE0030 		.word	805367344
 542 01f8 0C000140 		.word	1073807372
 543 01fc 10000140 		.word	1073807376
 544 0200 00500F40 		.word	1074745344
 545 0204 00004B40 		.word	1078657024
 546 0208 08500F40 		.word	1074745352
 547 020c 10500F40 		.word	1074745360
 548 0210 00000845 		.word	1158152192
 549 0214 18500F40 		.word	1074745368
 550 0218 20500F40 		.word	1074745376
 551 021c 30500F40 		.word	1074745392
 552 0220 00005140 		.word	1079050240
 553 0224 38500F40 		.word	1074745400
 554 0228 20000040 		.word	1073741856
 555 022c 00800F40 		.word	1074757632
 556 0230 01700F40 		.word	1074753537
 557 0234 00700F40 		.word	1074753536
 558 0238 00000440 		.word	1074003968
 559 023c 961DDB00 		.word	14359958
 560 0240 08000440 		.word	1074003976
 561 0244 0C000440 		.word	1074003980
 562 0248 18000440 		.word	1074003992
 563 024c 00010440 		.word	1074004224
 564 0250 06001800 		.word	1572870
 565 0254 08010440 		.word	1074004232
 566 0258 18010440 		.word	1074004248
 567 025c 08020440 		.word	1074004488
 568 0260 00030440 		.word	1074004736
 569 0264 B00DC300 		.word	12783024
 570 0268 08030440 		.word	1074004744
 571 026c 00040440 		.word	1074004992
 572 0270 08040440 		.word	1074005000
ARM GAS  C:\Users\ADMIN\AppData\Local\Temp\ccouXw6M.s 			page 23


 573              		.cfi_endproc
 574              	.LFE7:
 575              		.size	cyfitter_cfg, .-cyfitter_cfg
 576              		.section	.rodata
 577              		.align	2
 578              		.set	.LANCHOR0,. + 0
 579              		.set	.LANCHOR1,. + 384
 580              		.type	cfg_memset_list.4876, %object
 581              		.size	cfg_memset_list.4876, 12
 582              	cfg_memset_list.4876:
 583 0000 00300F40 		.word	1074737152
 584 0004 0004     		.short	1024
 585 0006 00400F40 		.4byte	1074741248
 586 000a 0004     		.short	1024
 587              		.type	cy_cfg_data_table.4871, %object
 588              		.size	cy_cfg_data_table.4871, 456
 589              	cy_cfg_data_table.4871:
 590 000c 01       		.byte	1
 591 000d 01       		.byte	1
 592 000e 0A       		.byte	10
 593 000f 02       		.byte	2
 594 0010 18       		.byte	24
 595 0011 03       		.byte	3
 596 0012 1B       		.byte	27
 597 0013 03       		.byte	3
 598 0014 2E       		.byte	46
 599 0015 01       		.byte	1
 600 0016 2F       		.byte	47
 601 0017 04       		.byte	4
 602 0018 30       		.byte	48
 603 0019 04       		.byte	4
 604 001a 32       		.byte	50
 605 001b 03       		.byte	3
 606 001c 33       		.byte	51
 607 001d 01       		.byte	1
 608 001e 35       		.byte	53
 609 001f 04       		.byte	4
 610 0020 36       		.byte	54
 611 0021 03       		.byte	3
 612 0022 37       		.byte	55
 613 0023 02       		.byte	2
 614 0024 3E       		.byte	62
 615 0025 01       		.byte	1
 616 0026 58       		.byte	88
 617 0027 04       		.byte	4
 618 0028 59       		.byte	89
 619 0029 0B       		.byte	11
 620 002a 5B       		.byte	91
 621 002b 04       		.byte	4
 622 002c 5F       		.byte	95
 623 002d 01       		.byte	1
 624 002e 82       		.byte	-126
 625 002f 06       		.byte	6
 626 0030 84       		.byte	-124
 627 0031 2D       		.byte	45
 628 0032 86       		.byte	-122
 629 0033 52       		.byte	82
ARM GAS  C:\Users\ADMIN\AppData\Local\Temp\ccouXw6M.s 			page 24


 630 0034 87       		.byte	-121
 631 0035 04       		.byte	4
 632 0036 8A       		.byte	-118
 633 0037 15       		.byte	21
 634 0038 8B       		.byte	-117
 635 0039 08       		.byte	8
 636 003a 8E       		.byte	-114
 637 003b 4D       		.byte	77
 638 003c 93       		.byte	-109
 639 003d 10       		.byte	16
 640 003e 95       		.byte	-107
 641 003f 01       		.byte	1
 642 0040 97       		.byte	-105
 643 0041 1E       		.byte	30
 644 0042 9E       		.byte	-98
 645 0043 2D       		.byte	45
 646 0044 A6       		.byte	-90
 647 0045 2D       		.byte	45
 648 0046 A9       		.byte	-87
 649 0047 03       		.byte	3
 650 0048 AD       		.byte	-83
 651 0049 02       		.byte	2
 652 004a AF       		.byte	-81
 653 004b 01       		.byte	1
 654 004c B0       		.byte	-80
 655 004d 03       		.byte	3
 656 004e B1       		.byte	-79
 657 004f 10       		.byte	16
 658 0050 B2       		.byte	-78
 659 0051 04       		.byte	4
 660 0052 B3       		.byte	-77
 661 0053 04       		.byte	4
 662 0054 B4       		.byte	-76
 663 0055 18       		.byte	24
 664 0056 B5       		.byte	-75
 665 0057 03       		.byte	3
 666 0058 B6       		.byte	-74
 667 0059 60       		.byte	96
 668 005a B7       		.byte	-73
 669 005b 08       		.byte	8
 670 005c BA       		.byte	-70
 671 005d A2       		.byte	-94
 672 005e BF       		.byte	-65
 673 005f 45       		.byte	69
 674 0060 D8       		.byte	-40
 675 0061 09       		.byte	9
 676 0062 D9       		.byte	-39
 677 0063 09       		.byte	9
 678 0064 DB       		.byte	-37
 679 0065 04       		.byte	4
 680 0066 DF       		.byte	-33
 681 0067 01       		.byte	1
 682 0068 00       		.byte	0
 683 0069 10       		.byte	16
 684 006a 05       		.byte	5
 685 006b 55       		.byte	85
 686 006c 0B       		.byte	11
ARM GAS  C:\Users\ADMIN\AppData\Local\Temp\ccouXw6M.s 			page 25


 687 006d 08       		.byte	8
 688 006e 0E       		.byte	14
 689 006f 01       		.byte	1
 690 0070 10       		.byte	16
 691 0071 02       		.byte	2
 692 0072 17       		.byte	23
 693 0073 08       		.byte	8
 694 0074 18       		.byte	24
 695 0075 10       		.byte	16
 696 0076 19       		.byte	25
 697 0077 80       		.byte	-128
 698 0078 1A       		.byte	26
 699 0079 81       		.byte	-127
 700 007a 1D       		.byte	29
 701 007b 55       		.byte	85
 702 007c 1F       		.byte	31
 703 007d 04       		.byte	4
 704 007e 21       		.byte	33
 705 007f 28       		.byte	40
 706 0080 23       		.byte	35
 707 0081 01       		.byte	1
 708 0082 24       		.byte	36
 709 0083 02       		.byte	2
 710 0084 26       		.byte	38
 711 0085 09       		.byte	9
 712 0086 27       		.byte	39
 713 0087 08       		.byte	8
 714 0088 2A       		.byte	42
 715 0089 80       		.byte	-128
 716 008a 2D       		.byte	45
 717 008b 80       		.byte	-128
 718 008c 2F       		.byte	47
 719 008d 04       		.byte	4
 720 008e 31       		.byte	49
 721 008f 20       		.byte	32
 722 0090 37       		.byte	55
 723 0091 09       		.byte	9
 724 0092 3B       		.byte	59
 725 0093 01       		.byte	1
 726 0094 3E       		.byte	62
 727 0095 14       		.byte	20
 728 0096 5D       		.byte	93
 729 0097 80       		.byte	-128
 730 0098 68       		.byte	104
 731 0099 02       		.byte	2
 732 009a 6E       		.byte	110
 733 009b 14       		.byte	20
 734 009c 6F       		.byte	111
 735 009d 01       		.byte	1
 736 009e 7B       		.byte	123
 737 009f 80       		.byte	-128
 738 00a0 7F       		.byte	127
 739 00a1 08       		.byte	8
 740 00a2 85       		.byte	-123
 741 00a3 08       		.byte	8
 742 00a4 C0       		.byte	-64
 743 00a5 F2       		.byte	-14
ARM GAS  C:\Users\ADMIN\AppData\Local\Temp\ccouXw6M.s 			page 26


 744 00a6 C2       		.byte	-62
 745 00a7 82       		.byte	-126
 746 00a8 C4       		.byte	-60
 747 00a9 21       		.byte	33
 748 00aa CA       		.byte	-54
 749 00ab 38       		.byte	56
 750 00ac CC       		.byte	-52
 751 00ad C4       		.byte	-60
 752 00ae CE       		.byte	-50
 753 00af 61       		.byte	97
 754 00b0 D6       		.byte	-42
 755 00b1 10       		.byte	16
 756 00b2 DE       		.byte	-34
 757 00b3 21       		.byte	33
 758 00b4 00       		.byte	0
 759 00b5 0E       		.byte	14
 760 00b6 02       		.byte	2
 761 00b7 90       		.byte	-112
 762 00b8 04       		.byte	4
 763 00b9 03       		.byte	3
 764 00ba 06       		.byte	6
 765 00bb 04       		.byte	4
 766 00bc 08       		.byte	8
 767 00bd 01       		.byte	1
 768 00be 0A       		.byte	10
 769 00bf FC       		.byte	-4
 770 00c0 17       		.byte	23
 771 00c1 01       		.byte	1
 772 00c2 18       		.byte	24
 773 00c3 0A       		.byte	10
 774 00c4 1A       		.byte	26
 775 00c5 54       		.byte	84
 776 00c6 1C       		.byte	28
 777 00c7 24       		.byte	36
 778 00c8 1E       		.byte	30
 779 00c9 0A       		.byte	10
 780 00ca 28       		.byte	40
 781 00cb 04       		.byte	4
 782 00cc 2A       		.byte	42
 783 00cd FA       		.byte	-6
 784 00ce 30       		.byte	48
 785 00cf E0       		.byte	-32
 786 00d0 32       		.byte	50
 787 00d1 07       		.byte	7
 788 00d2 33       		.byte	51
 789 00d3 01       		.byte	1
 790 00d4 34       		.byte	52
 791 00d5 80       		.byte	-128
 792 00d6 36       		.byte	54
 793 00d7 18       		.byte	24
 794 00d8 39       		.byte	57
 795 00d9 20       		.byte	32
 796 00da 3A       		.byte	58
 797 00db AA       		.byte	-86
 798 00dc 3B       		.byte	59
 799 00dd 08       		.byte	8
 800 00de 58       		.byte	88
ARM GAS  C:\Users\ADMIN\AppData\Local\Temp\ccouXw6M.s 			page 27


 801 00df 04       		.byte	4
 802 00e0 59       		.byte	89
 803 00e1 04       		.byte	4
 804 00e2 5F       		.byte	95
 805 00e3 01       		.byte	1
 806 00e4 80       		.byte	-128
 807 00e5 05       		.byte	5
 808 00e6 82       		.byte	-126
 809 00e7 02       		.byte	2
 810 00e8 83       		.byte	-125
 811 00e9 03       		.byte	3
 812 00ea 84       		.byte	-124
 813 00eb 0E       		.byte	14
 814 00ec 86       		.byte	-122
 815 00ed 90       		.byte	-112
 816 00ee 8E       		.byte	-114
 817 00ef FE       		.byte	-2
 818 00f0 8F       		.byte	-113
 819 00f1 01       		.byte	1
 820 00f2 90       		.byte	-112
 821 00f3 0C       		.byte	12
 822 00f4 92       		.byte	-110
 823 00f5 52       		.byte	82
 824 00f6 94       		.byte	-108
 825 00f7 22       		.byte	34
 826 00f8 96       		.byte	-106
 827 00f9 0C       		.byte	12
 828 00fa 97       		.byte	-105
 829 00fb 07       		.byte	7
 830 00fc 9E       		.byte	-98
 831 00fd FE       		.byte	-2
 832 00fe A4       		.byte	-92
 833 00ff 02       		.byte	2
 834 0100 A6       		.byte	-90
 835 0101 FC       		.byte	-4
 836 0102 A8       		.byte	-88
 837 0103 01       		.byte	1
 838 0104 AA       		.byte	-86
 839 0105 FA       		.byte	-6
 840 0106 B0       		.byte	-80
 841 0107 80       		.byte	-128
 842 0108 B1       		.byte	-79
 843 0109 02       		.byte	2
 844 010a B2       		.byte	-78
 845 010b 18       		.byte	24
 846 010c B4       		.byte	-76
 847 010d E0       		.byte	-32
 848 010e B5       		.byte	-75
 849 010f 01       		.byte	1
 850 0110 B6       		.byte	-74
 851 0111 07       		.byte	7
 852 0112 B7       		.byte	-73
 853 0113 04       		.byte	4
 854 0114 B9       		.byte	-71
 855 0115 08       		.byte	8
 856 0116 BA       		.byte	-70
 857 0117 AA       		.byte	-86
ARM GAS  C:\Users\ADMIN\AppData\Local\Temp\ccouXw6M.s 			page 28


 858 0118 BB       		.byte	-69
 859 0119 A2       		.byte	-94
 860 011a D8       		.byte	-40
 861 011b 09       		.byte	9
 862 011c D9       		.byte	-39
 863 011d 09       		.byte	9
 864 011e DF       		.byte	-33
 865 011f 01       		.byte	1
 866 0120 00       		.byte	0
 867 0121 40       		.byte	64
 868 0122 03       		.byte	3
 869 0123 A0       		.byte	-96
 870 0124 05       		.byte	5
 871 0125 05       		.byte	5
 872 0126 07       		.byte	7
 873 0127 08       		.byte	8
 874 0128 0A       		.byte	10
 875 0129 50       		.byte	80
 876 012a 0B       		.byte	11
 877 012b 01       		.byte	1
 878 012c 0E       		.byte	14
 879 012d 05       		.byte	5
 880 012e 12       		.byte	18
 881 012f 20       		.byte	32
 882 0130 13       		.byte	19
 883 0131 20       		.byte	32
 884 0132 17       		.byte	23
 885 0133 10       		.byte	16
 886 0134 1A       		.byte	26
 887 0135 50       		.byte	80
 888 0136 1B       		.byte	27
 889 0137 A0       		.byte	-96
 890 0138 1D       		.byte	29
 891 0139 05       		.byte	5
 892 013a 1E       		.byte	30
 893 013b 05       		.byte	5
 894 013c 1F       		.byte	31
 895 013d 08       		.byte	8
 896 013e 20       		.byte	32
 897 013f 40       		.byte	64
 898 0140 22       		.byte	34
 899 0141 28       		.byte	40
 900 0142 23       		.byte	35
 901 0143 21       		.byte	33
 902 0144 27       		.byte	39
 903 0145 18       		.byte	24
 904 0146 32       		.byte	50
 905 0147 08       		.byte	8
 906 0148 37       		.byte	55
 907 0149 08       		.byte	8
 908 014a 38       		.byte	56
 909 014b 40       		.byte	64
 910 014c 3B       		.byte	59
 911 014d 01       		.byte	1
 912 014e 7B       		.byte	123
 913 014f 08       		.byte	8
 914 0150 80       		.byte	-128
ARM GAS  C:\Users\ADMIN\AppData\Local\Temp\ccouXw6M.s 			page 29


 915 0151 01       		.byte	1
 916 0152 90       		.byte	-112
 917 0153 02       		.byte	2
 918 0154 A7       		.byte	-89
 919 0155 88       		.byte	-120
 920 0156 AA       		.byte	-86
 921 0157 40       		.byte	64
 922 0158 AE       		.byte	-82
 923 0159 80       		.byte	-128
 924 015a B2       		.byte	-78
 925 015b 08       		.byte	8
 926 015c B6       		.byte	-74
 927 015d 01       		.byte	1
 928 015e C0       		.byte	-64
 929 015f 7D       		.byte	125
 930 0160 C2       		.byte	-62
 931 0161 CD       		.byte	-51
 932 0162 C4       		.byte	-60
 933 0163 46       		.byte	70
 934 0164 CC       		.byte	-52
 935 0165 42       		.byte	66
 936 0166 CE       		.byte	-50
 937 0167 09       		.byte	9
 938 0168 DE       		.byte	-34
 939 0169 04       		.byte	4
 940 016a E4       		.byte	-28
 941 016b 04       		.byte	4
 942 016c E6       		.byte	-26
 943 016d 28       		.byte	40
 944 016e EA       		.byte	-22
 945 016f 10       		.byte	16
 946 0170 EE       		.byte	-18
 947 0171 84       		.byte	-124
 948 0172 13       		.byte	19
 949 0173 04       		.byte	4
 950 0174 2E       		.byte	46
 951 0175 08       		.byte	8
 952 0176 52       		.byte	82
 953 0177 80       		.byte	-128
 954 0178 54       		.byte	84
 955 0179 02       		.byte	2
 956 017a 56       		.byte	86
 957 017b 80       		.byte	-128
 958 017c 5F       		.byte	95
 959 017d 02       		.byte	2
 960 017e 6F       		.byte	111
 961 017f 01       		.byte	1
 962 0180 72       		.byte	114
 963 0181 08       		.byte	8
 964 0182 87       		.byte	-121
 965 0183 01       		.byte	1
 966 0184 C4       		.byte	-60
 967 0185 10       		.byte	16
 968 0186 CA       		.byte	-54
 969 0187 80       		.byte	-128
 970 0188 D4       		.byte	-44
 971 0189 60       		.byte	96
ARM GAS  C:\Users\ADMIN\AppData\Local\Temp\ccouXw6M.s 			page 30


 972 018a D6       		.byte	-42
 973 018b A0       		.byte	-96
 974 018c DA       		.byte	-38
 975 018d 80       		.byte	-128
 976 018e DC       		.byte	-36
 977 018f 20       		.byte	32
 978 0190 E2       		.byte	-30
 979 0191 40       		.byte	64
 980 0192 5B       		.byte	91
 981 0193 40       		.byte	64
 982 0194 63       		.byte	99
 983 0195 02       		.byte	2
 984 0196 87       		.byte	-121
 985 0197 01       		.byte	1
 986 0198 8A       		.byte	-118
 987 0199 80       		.byte	-128
 988 019a 9B       		.byte	-101
 989 019b 40       		.byte	64
 990 019c 9E       		.byte	-98
 991 019d 80       		.byte	-128
 992 019e AA       		.byte	-86
 993 019f 80       		.byte	-128
 994 01a0 AB       		.byte	-85
 995 01a1 40       		.byte	64
 996 01a2 AF       		.byte	-81
 997 01a3 04       		.byte	4
 998 01a4 B0       		.byte	-80
 999 01a5 02       		.byte	2
 1000 01a6 B7       		.byte	-73
 1001 01a7 02       		.byte	2
 1002 01a8 D4       		.byte	-44
 1003 01a9 80       		.byte	-128
 1004 01aa D6       		.byte	-42
 1005 01ab 40       		.byte	64
 1006 01ac E6       		.byte	-26
 1007 01ad 10       		.byte	16
 1008 01ae E8       		.byte	-24
 1009 01af 40       		.byte	64
 1010 01b0 EE       		.byte	-18
 1011 01b1 A0       		.byte	-96
 1012 01b2 18       		.byte	24
 1013 01b3 20       		.byte	32
 1014 01b4 1A       		.byte	26
 1015 01b5 08       		.byte	8
 1016 01b6 1C       		.byte	28
 1017 01b7 80       		.byte	-128
 1018 01b8 1F       		.byte	31
 1019 01b9 20       		.byte	32
 1020 01ba 50       		.byte	80
 1021 01bb 10       		.byte	16
 1022 01bc 67       		.byte	103
 1023 01bd 02       		.byte	2
 1024 01be 83       		.byte	-125
 1025 01bf 01       		.byte	1
 1026 01c0 86       		.byte	-122
 1027 01c1 04       		.byte	4
 1028 01c2 88       		.byte	-120
ARM GAS  C:\Users\ADMIN\AppData\Local\Temp\ccouXw6M.s 			page 31


 1029 01c3 40       		.byte	64
 1030 01c4 A7       		.byte	-89
 1031 01c5 20       		.byte	32
 1032 01c6 AB       		.byte	-85
 1033 01c7 20       		.byte	32
 1034 01c8 C6       		.byte	-58
 1035 01c9 0F       		.byte	15
 1036 01ca D4       		.byte	-44
 1037 01cb 04       		.byte	4
 1038 01cc D6       		.byte	-42
 1039 01cd 01       		.byte	1
 1040 01ce E6       		.byte	-26
 1041 01cf 04       		.byte	4
 1042 01d0 01       		.byte	1
 1043 01d1 01       		.byte	1
 1044 01d2 10       		.byte	16
 1045 01d3 01       		.byte	1
 1046              		.type	cy_cfg_addr_table.4870, %object
 1047              		.size	cy_cfg_addr_table.4870, 32
 1048              	cy_cfg_addr_table.4870:
 1049 01d4 2E300F40 		.word	1074737198
 1050 01d8 26310F40 		.word	1074737446
 1051 01dc 36320F40 		.word	1074737718
 1052 01e0 29330F40 		.word	1074737961
 1053 01e4 10400F40 		.word	1074741264
 1054 01e8 10410F40 		.word	1074741520
 1055 01ec 0F430F40 		.word	1074742031
 1056 01f0 02600F40 		.word	1074749442
 1057              		.text
 1058              	.Letext0:
 1059              		.file 2 "c:\\program files (x86)\\cypress\\psoc creator\\4.4\\psoc creator\\import\\gnu\\arm\\5.4.
 1060              		.file 3 "Generated_Source\\PSoC4\\cytypes.h"
 1061              		.file 4 "Generated_Source\\PSoC4\\CyLib.h"