ARM GAS  C:\Users\ADMIN\AppData\Local\Temp\ccWtGHBy.s 			page 1


   1              		.syntax unified
   2              		.cpu cortex-m0
   3              		.fpu softvfp
   4              		.eabi_attribute 20, 1
   5              		.eabi_attribute 21, 1
   6              		.eabi_attribute 23, 3
   7              		.eabi_attribute 24, 1
   8              		.eabi_attribute 25, 1
   9              		.eabi_attribute 26, 1
  10              		.eabi_attribute 30, 1
  11              		.eabi_attribute 34, 0
  12              		.eabi_attribute 18, 4
  13              		.thumb
  14              		.syntax unified
  15              		.file	"learn_color.c"
  16              		.text
  17              	.Ltext0:
  18              		.cfi_sections	.debug_frame
  19              		.section	.text.compare_to_none_color,"ax",%progbits
  20              		.align	2
  21              		.global	compare_to_none_color
  22              		.code	16
  23              		.thumb_func
  24              		.type	compare_to_none_color, %function
  25              	compare_to_none_color:
  26              	.LFB36:
  27              		.file 1 "learn_color.c"
   1:learn_color.c **** /* ========================================
   2:learn_color.c ****  *
   3:learn_color.c ****  * Copyright YOUR COMPANY, THE YEAR
   4:learn_color.c ****  * All Rights Reserved
   5:learn_color.c ****  * UNPUBLISHED, LICENSED SOFTWARE.
   6:learn_color.c ****  *
   7:learn_color.c ****  * CONFIDENTIAL AND PROPRIETARY INFORMATION
   8:learn_color.c ****  * WHICH IS THE PROPERTY OF your company.
   9:learn_color.c ****  *
  10:learn_color.c ****  * ========================================
  11:learn_color.c **** */
  12:learn_color.c **** 
  13:learn_color.c **** /* [] END OF FILE */
  14:learn_color.c **** #include "learn_color.h"
  15:learn_color.c **** #include "main.h"
  16:learn_color.c **** 
  17:learn_color.c **** //new
  18:learn_color.c **** bool button_pushed = false;
  19:learn_color.c **** 
  20:learn_color.c **** int min_none_color[3] = {255, 255, 255};
  21:learn_color.c **** int max_none_color[3] = {0, 0, 0};
  22:learn_color.c **** 
  23:learn_color.c **** 
  24:learn_color.c **** //int min_rgb[3] = {255, 255, 255};
  25:learn_color.c **** //int max_rgb[3] = {0, 0, 0};
  26:learn_color.c **** //int mid_rgb[3];
  27:learn_color.c **** //
  28:learn_color.c **** 
  29:learn_color.c **** /*
  30:learn_color.c **** void fill_boundaries(){
ARM GAS  C:\Users\ADMIN\AppData\Local\Temp\ccWtGHBy.s 			page 2


  31:learn_color.c ****     
  32:learn_color.c ****     for(size_t i; i<6; i++){
  33:learn_color.c ****         for (size_t j; j<3; j++){
  34:learn_color.c ****             boundaries[i].min_rgb[j] = 255;
  35:learn_color.c ****             boundaries[i].max_rgb[j] = 0;
  36:learn_color.c ****         }
  37:learn_color.c ****         
  38:learn_color.c ****     }
  39:learn_color.c ****     
  40:learn_color.c ****     boundaries[0].min_rgb[0] = 1;
  41:learn_color.c ****     boundaries[0].min_rgb[1] = 1;
  42:learn_color.c ****     boundaries[0].min_rgb[2] = 1;
  43:learn_color.c ****     
  44:learn_color.c ****     boundaries[0].max_rgb[0] = 1;
  45:learn_color.c ****     boundaries[0].max_rgb[1] = 1;
  46:learn_color.c ****     boundaries[0].max_rgb[2] = 1;
  47:learn_color.c ****     
  48:learn_color.c ****     
  49:learn_color.c **** }
  50:learn_color.c **** */
  51:learn_color.c **** 
  52:learn_color.c **** int analyze_measurement_boundaries(int min_rgb[3], int max_rgb[3], bool none_col, int count_setting
  53:learn_color.c ****     
  54:learn_color.c ****     int color[3];
  55:learn_color.c ****     
  56:learn_color.c ****     //int all_measurements[MAX_NUM_TO_MEASURE][3];
  57:learn_color.c ****     
  58:learn_color.c ****     sprintf(str, "none %d", none_col);
  59:learn_color.c ****     //print(str);
  60:learn_color.c ****     
  61:learn_color.c ****     sprintf(str, "settings %d", count_settings);
  62:learn_color.c ****     //print(str);    
  63:learn_color.c ****     
  64:learn_color.c ****     size_t curr_num = 0;
  65:learn_color.c ****     
  66:learn_color.c ****     if(!button_pushed){
  67:learn_color.c ****         return 0;
  68:learn_color.c ****     }
  69:learn_color.c ****     
  70:learn_color.c ****     PWM_Container_WriteCompare(1);
  71:learn_color.c ****     
  72:learn_color.c ****     size_t max_num_to_measure = none_col ? MAX_NUM_TO_MEASURE_NONE : MAX_NUM_TO_MEASURE;
  73:learn_color.c ****     
  74:learn_color.c ****     if (!none_col){
  75:learn_color.c ****         OpenCloseTestGates(count_settings, true);
  76:learn_color.c ****     }
  77:learn_color.c ****     
  78:learn_color.c ****     int count_not_none = 0;
  79:learn_color.c ****    
  80:learn_color.c ****     
  81:learn_color.c ****     while(curr_num < max_num_to_measure){
  82:learn_color.c ****         getRGB(&color[0], &color[1], &color[2]);
  83:learn_color.c ****         sprintf(str, "r %d | g %d | b %d", color[0], color[1], color[2]);
  84:learn_color.c ****         print(str);
  85:learn_color.c ****         
  86:learn_color.c ****         
  87:learn_color.c ****         if (none_col == false && compare_to_none_color(color)){
ARM GAS  C:\Users\ADMIN\AppData\Local\Temp\ccWtGHBy.s 			page 3


  88:learn_color.c ****             sprintf(str, "SOS");
  89:learn_color.c ****             print(str);
  90:learn_color.c ****             count_not_none = 0;
  91:learn_color.c ****             continue;
  92:learn_color.c ****             
  93:learn_color.c ****         }
  94:learn_color.c ****         
  95:learn_color.c ****         sprintf(str, "r %d | g %d | b %d", color[0], color[1], color[2]);
  96:learn_color.c ****         //print(str);
  97:learn_color.c ****         
  98:learn_color.c ****         count_not_none += 1;
  99:learn_color.c ****         if (count_not_none == 3 || count_not_none == 4 || none_col == true){
 100:learn_color.c ****             
 101:learn_color.c ****             for (size_t i = 0; i<3; i++){
 102:learn_color.c ****             
 103:learn_color.c ****                 sprintf(str, "check %d", 0);
 104:learn_color.c ****                 //print(str);
 105:learn_color.c ****                 if (color[i] < min_rgb[i]){
 106:learn_color.c ****                     sprintf(str, "check %d", 1);
 107:learn_color.c ****                     //print(str);
 108:learn_color.c ****                     min_rgb[i] = color[i];
 109:learn_color.c ****                 }
 110:learn_color.c ****                 if (color[i] > max_rgb[i]){
 111:learn_color.c ****                     sprintf(str, "check %d", 2);
 112:learn_color.c ****                     //print(str);
 113:learn_color.c ****                     max_rgb[i] = color[i];
 114:learn_color.c ****                 }
 115:learn_color.c ****                 
 116:learn_color.c ****                 //all_measurements[curr_num][i] = color[i];
 117:learn_color.c ****             }
 118:learn_color.c ****             curr_num += 2;
 119:learn_color.c ****         }
 120:learn_color.c ****         
 121:learn_color.c ****         
 122:learn_color.c ****         
 123:learn_color.c ****         
 124:learn_color.c ****     }
 125:learn_color.c ****     
 126:learn_color.c ****     
 127:learn_color.c ****     button_pushed = false;
 128:learn_color.c ****     CyDelay(2000);
 129:learn_color.c ****     
 130:learn_color.c ****     if (!none_col){
 131:learn_color.c ****         OpenCloseTestGates(count_settings, false);
 132:learn_color.c ****     }
 133:learn_color.c ****     
 134:learn_color.c ****     PWM_Container_WriteCompare(0);
 135:learn_color.c ****     
 136:learn_color.c ****     
 137:learn_color.c ****     if(none_col){
 138:learn_color.c ****         sprintf(str, "NONE");
 139:learn_color.c ****         print(str);
 140:learn_color.c ****         for (size_t i = 0; i<3; i++){
 141:learn_color.c ****             min_rgb[i] -= 5;
 142:learn_color.c ****             max_rgb[i] += 5;
 143:learn_color.c ****         }
 144:learn_color.c ****     } else{;
ARM GAS  C:\Users\ADMIN\AppData\Local\Temp\ccWtGHBy.s 			page 4


 145:learn_color.c ****         for (size_t i = 0; i<3; i++){
 146:learn_color.c ****             min_rgb[i] -= 2;
 147:learn_color.c ****             max_rgb[i] += 2;
 148:learn_color.c ****         }
 149:learn_color.c ****     }
 150:learn_color.c ****     
 151:learn_color.c ****     //for (size_t i; i < curr_num; i++){
 152:learn_color.c ****       //  sprintf(str, "r %d | g %d | b %d", all_measurements[i][0], all_measurements[i][1], all_me
 153:learn_color.c ****      //   print(str);
 154:learn_color.c ****     //}
 155:learn_color.c ****     
 156:learn_color.c ****     sprintf(str, "min r %d | g %d | b %d", min_rgb[0], min_rgb[1], min_rgb[2]);
 157:learn_color.c ****     print(str);
 158:learn_color.c ****     
 159:learn_color.c ****     sprintf(str, "max r %d | g %d | b %d", max_rgb[0], max_rgb[1], max_rgb[2]);
 160:learn_color.c ****     print(str);
 161:learn_color.c ****     
 162:learn_color.c ****     //CyDelay(10000);
 163:learn_color.c ****     return 0;
 164:learn_color.c ****     //total sum of color measurements
 165:learn_color.c ****     //for (size_t i; i <= curr_num; i++){
 166:learn_color.c ****       //  for (size_t j; j < 3; j++){
 167:learn_color.c ****         //    mid_rgb[j] += all_measurements[i][j];
 168:learn_color.c ****         //}
 169:learn_color.c ****     //}
 170:learn_color.c ****     //find the average
 171:learn_color.c ****     //for (size_t i; i < 3; i++){
 172:learn_color.c ****       //  mid_rgb[i] /= curr_num+1;
 173:learn_color.c ****     //}
 174:learn_color.c **** 
 175:learn_color.c **** }
 176:learn_color.c **** 
 177:learn_color.c **** void analyze_measurement_boundaries_none(int min_rgb[3], int max_rgb[3]){
 178:learn_color.c ****     analyze_measurement_boundaries(min_rgb, max_rgb, true, 0);
 179:learn_color.c **** }
 180:learn_color.c **** void analyze_measurement_boundaries_color(int min_rgb[3], int max_rgb[3], int count_settings){
 181:learn_color.c ****     analyze_measurement_boundaries(min_rgb, max_rgb, false, count_settings);
 182:learn_color.c **** }
 183:learn_color.c **** 
 184:learn_color.c **** //true if color == none
 185:learn_color.c **** bool compare_to_none_color(int color[3]){
  28              		.loc 1 185 0
  29              		.cfi_startproc
  30              		@ args = 0, pretend = 0, frame = 0
  31              		@ frame_needed = 0, uses_anonymous_args = 0
  32              	.LVL0:
  33 0000 10B5     		push	{r4, lr}
  34              		.cfi_def_cfa_offset 8
  35              		.cfi_offset 4, -8
  36              		.cfi_offset 14, -4
  37              	.LVL1:
  38              	.LBB2:
 186:learn_color.c ****     for (size_t i = 0; i<3; i++){
  39              		.loc 1 186 0
  40 0002 0023     		movs	r3, #0
  41 0004 0AE0     		b	.L2
  42              	.LVL2:
ARM GAS  C:\Users\ADMIN\AppData\Local\Temp\ccWtGHBy.s 			page 5


  43              	.L4:
 187:learn_color.c ****         if (min_none_color[i] > color[i] || max_none_color[i] < color[i]){
  44              		.loc 1 187 0
  45 0006 9A00     		lsls	r2, r3, #2
  46 0008 0849     		ldr	r1, .L7
  47 000a 5458     		ldr	r4, [r2, r1]
  48 000c 1158     		ldr	r1, [r2, r0]
  49 000e 8C42     		cmp	r4, r1
  50 0010 08DC     		bgt	.L5
  51              		.loc 1 187 0 is_stmt 0 discriminator 1
  52 0012 074C     		ldr	r4, .L7+4
  53 0014 1259     		ldr	r2, [r2, r4]
  54 0016 9142     		cmp	r1, r2
  55 0018 06DC     		bgt	.L6
 186:learn_color.c ****     for (size_t i = 0; i<3; i++){
  56              		.loc 1 186 0 is_stmt 1 discriminator 2
  57 001a 0133     		adds	r3, r3, #1
  58              	.LVL3:
  59              	.L2:
 186:learn_color.c ****     for (size_t i = 0; i<3; i++){
  60              		.loc 1 186 0 is_stmt 0 discriminator 1
  61 001c 022B     		cmp	r3, #2
  62 001e F2D9     		bls	.L4
  63              	.LBE2:
 188:learn_color.c ****             return false;
 189:learn_color.c ****         }       
 190:learn_color.c ****     }
 191:learn_color.c ****     
 192:learn_color.c ****     return true;
  64              		.loc 1 192 0 is_stmt 1
  65 0020 0120     		movs	r0, #1
  66              	.LVL4:
  67              	.LBB3:
  68 0022 02E0     		b	.L3
  69              	.LVL5:
  70              	.L5:
 188:learn_color.c ****             return false;
  71              		.loc 1 188 0
  72 0024 0020     		movs	r0, #0
  73              	.LVL6:
  74 0026 00E0     		b	.L3
  75              	.LVL7:
  76              	.L6:
  77 0028 0020     		movs	r0, #0
  78              	.LVL8:
  79              	.L3:
  80              	.LBE3:
 193:learn_color.c ****     
 194:learn_color.c **** }
  81              		.loc 1 194 0
  82              		@ sp needed
  83 002a 10BD     		pop	{r4, pc}
  84              	.L8:
  85              		.align	2
  86              	.L7:
  87 002c 00000000 		.word	.LANCHOR0
  88 0030 00000000 		.word	.LANCHOR1
ARM GAS  C:\Users\ADMIN\AppData\Local\Temp\ccWtGHBy.s 			page 6


  89              		.cfi_endproc
  90              	.LFE36:
  91              		.size	compare_to_none_color, .-compare_to_none_color
  92              		.section	.text.analyze_measurement_boundaries,"ax",%progbits
  93              		.align	2
  94              		.global	analyze_measurement_boundaries
  95              		.code	16
  96              		.thumb_func
  97              		.type	analyze_measurement_boundaries, %function
  98              	analyze_measurement_boundaries:
  99              	.LFB33:
  52:learn_color.c ****     
 100              		.loc 1 52 0
 101              		.cfi_startproc
 102              		@ args = 0, pretend = 0, frame = 24
 103              		@ frame_needed = 0, uses_anonymous_args = 0
 104              	.LVL9:
 105 0000 F0B5     		push	{r4, r5, r6, r7, lr}
 106              		.cfi_def_cfa_offset 20
 107              		.cfi_offset 4, -20
 108              		.cfi_offset 5, -16
 109              		.cfi_offset 6, -12
 110              		.cfi_offset 7, -8
 111              		.cfi_offset 14, -4
 112 0002 5F46     		mov	r7, fp
 113 0004 5646     		mov	r6, r10
 114 0006 4D46     		mov	r5, r9
 115 0008 4446     		mov	r4, r8
 116 000a F0B4     		push	{r4, r5, r6, r7}
 117              		.cfi_def_cfa_offset 36
 118              		.cfi_offset 8, -36
 119              		.cfi_offset 9, -32
 120              		.cfi_offset 10, -28
 121              		.cfi_offset 11, -24
 122 000c 89B0     		sub	sp, sp, #36
 123              		.cfi_def_cfa_offset 72
 124 000e 8146     		mov	r9, r0
 125 0010 8846     		mov	r8, r1
 126 0012 9346     		mov	fp, r2
 127 0014 1D00     		movs	r5, r3
 128 0016 0393     		str	r3, [sp, #12]
  58:learn_color.c ****     //print(str);
 129              		.loc 1 58 0
 130 0018 794C     		ldr	r4, .L31
 131 001a 7A49     		ldr	r1, .L31+4
 132              	.LVL10:
 133 001c 2000     		movs	r0, r4
 134              	.LVL11:
 135 001e FFF7FEFF 		bl	sprintf
 136              	.LVL12:
  61:learn_color.c ****     //print(str);    
 137              		.loc 1 61 0
 138 0022 2A00     		movs	r2, r5
 139 0024 7849     		ldr	r1, .L31+8
 140 0026 2000     		movs	r0, r4
 141 0028 FFF7FEFF 		bl	sprintf
 142              	.LVL13:
ARM GAS  C:\Users\ADMIN\AppData\Local\Temp\ccWtGHBy.s 			page 7


  66:learn_color.c ****         return 0;
 143              		.loc 1 66 0
 144 002c 774B     		ldr	r3, .L31+12
 145 002e 1B7B     		ldrb	r3, [r3, #12]
 146 0030 002B     		cmp	r3, #0
 147 0032 00D1     		bne	.LCB127
 148 0034 DBE0     		b	.L10	@long jump
 149              	.LCB127:
  70:learn_color.c ****     
 150              		.loc 1 70 0
 151 0036 0120     		movs	r0, #1
 152 0038 FFF7FEFF 		bl	PWM_Container_WriteCompare
 153              	.LVL14:
  72:learn_color.c ****     
 154              		.loc 1 72 0
 155 003c 5B46     		mov	r3, fp
 156 003e 002B     		cmp	r3, #0
 157 0040 02D0     		beq	.L27
 158 0042 6423     		movs	r3, #100
 159 0044 0293     		str	r3, [sp, #8]
 160 0046 01E0     		b	.L11
 161              	.L27:
 162 0048 0A23     		movs	r3, #10
 163 004a 0293     		str	r3, [sp, #8]
 164              	.L11:
 165              	.LVL15:
  74:learn_color.c ****         OpenCloseTestGates(count_settings, true);
 166              		.loc 1 74 0 discriminator 4
 167 004c 5B46     		mov	r3, fp
 168 004e 002B     		cmp	r3, #0
 169 0050 03D1     		bne	.L12
  75:learn_color.c ****     }
 170              		.loc 1 75 0
 171 0052 0121     		movs	r1, #1
 172 0054 0398     		ldr	r0, [sp, #12]
 173 0056 FFF7FEFF 		bl	OpenCloseTestGates
 174              	.LVL16:
 175              	.L12:
  90:learn_color.c ****             continue;
 176              		.loc 1 90 0
 177 005a 0026     		movs	r6, #0
 178 005c 0023     		movs	r3, #0
 179 005e 1F00     		movs	r7, r3
 180 0060 63E0     		b	.L13
 181              	.LVL17:
 182              	.L20:
  82:learn_color.c ****         sprintf(str, "r %d | g %d | b %d", color[0], color[1], color[2]);
 183              		.loc 1 82 0
 184 0062 07AA     		add	r2, sp, #28
 185 0064 06A9     		add	r1, sp, #24
 186 0066 05A8     		add	r0, sp, #20
 187 0068 FFF7FEFF 		bl	getRGB
 188              	.LVL18:
  83:learn_color.c ****         print(str);
 189              		.loc 1 83 0
 190 006c 069B     		ldr	r3, [sp, #24]
 191 006e 644C     		ldr	r4, .L31
ARM GAS  C:\Users\ADMIN\AppData\Local\Temp\ccWtGHBy.s 			page 8


 192 0070 079A     		ldr	r2, [sp, #28]
 193 0072 0092     		str	r2, [sp]
 194 0074 059A     		ldr	r2, [sp, #20]
 195 0076 6649     		ldr	r1, .L31+16
 196 0078 2000     		movs	r0, r4
 197 007a FFF7FEFF 		bl	sprintf
 198              	.LVL19:
  84:learn_color.c ****         
 199              		.loc 1 84 0
 200 007e 2000     		movs	r0, r4
 201 0080 FFF7FEFF 		bl	print
 202              	.LVL20:
  87:learn_color.c ****             sprintf(str, "SOS");
 203              		.loc 1 87 0
 204 0084 5B46     		mov	r3, fp
 205 0086 002B     		cmp	r3, #0
 206 0088 0FD1     		bne	.L14
  87:learn_color.c ****             sprintf(str, "SOS");
 207              		.loc 1 87 0 is_stmt 0 discriminator 1
 208 008a 05A8     		add	r0, sp, #20
 209 008c FFF7FEFF 		bl	compare_to_none_color
 210              	.LVL21:
 211 0090 0028     		cmp	r0, #0
 212 0092 0AD0     		beq	.L14
  88:learn_color.c ****             print(str);
 213              		.loc 1 88 0 is_stmt 1
 214 0094 5A4C     		ldr	r4, .L31
 215 0096 0422     		movs	r2, #4
 216 0098 5E49     		ldr	r1, .L31+20
 217 009a 2000     		movs	r0, r4
 218 009c FFF7FEFF 		bl	memcpy
 219              	.LVL22:
  89:learn_color.c ****             count_not_none = 0;
 220              		.loc 1 89 0
 221 00a0 2000     		movs	r0, r4
 222 00a2 FFF7FEFF 		bl	print
 223              	.LVL23:
  90:learn_color.c ****             continue;
 224              		.loc 1 90 0
 225 00a6 0026     		movs	r6, #0
  91:learn_color.c ****             
 226              		.loc 1 91 0
 227 00a8 3FE0     		b	.L13
 228              	.LVL24:
 229              	.L14:
  95:learn_color.c ****         //print(str);
 230              		.loc 1 95 0
 231 00aa 069B     		ldr	r3, [sp, #24]
 232 00ac 079A     		ldr	r2, [sp, #28]
 233 00ae 0092     		str	r2, [sp]
 234 00b0 059A     		ldr	r2, [sp, #20]
 235 00b2 5749     		ldr	r1, .L31+16
 236 00b4 5248     		ldr	r0, .L31
 237 00b6 FFF7FEFF 		bl	sprintf
 238              	.LVL25:
  98:learn_color.c ****         if (count_not_none == 3 || count_not_none == 4 || none_col == true){
 239              		.loc 1 98 0
ARM GAS  C:\Users\ADMIN\AppData\Local\Temp\ccWtGHBy.s 			page 9


 240 00ba 0136     		adds	r6, r6, #1
 241              	.LVL26:
  99:learn_color.c ****             
 242              		.loc 1 99 0
 243 00bc F31E     		subs	r3, r6, #3
 244 00be 012B     		cmp	r3, #1
 245 00c0 2AD9     		bls	.L28
  99:learn_color.c ****             
 246              		.loc 1 99 0 is_stmt 0 discriminator 1
 247 00c2 5B46     		mov	r3, fp
 248 00c4 002B     		cmp	r3, #0
 249 00c6 2AD1     		bne	.L29
 250 00c8 2FE0     		b	.L13
 251              	.LVL27:
 252              	.L19:
 253              	.LBB4:
 103:learn_color.c ****                 //print(str);
 254              		.loc 1 103 0 is_stmt 1
 255 00ca 0022     		movs	r2, #0
 256 00cc 5249     		ldr	r1, .L31+24
 257 00ce 4C48     		ldr	r0, .L31
 258 00d0 FFF7FEFF 		bl	sprintf
 259              	.LVL28:
 105:learn_color.c ****                     sprintf(str, "check %d", 1);
 260              		.loc 1 105 0
 261 00d4 AC00     		lsls	r4, r5, #2
 262 00d6 05AB     		add	r3, sp, #20
 263 00d8 E358     		ldr	r3, [r4, r3]
 264 00da 4A46     		mov	r2, r9
 265 00dc 1619     		adds	r6, r2, r4
 266 00de 3268     		ldr	r2, [r6]
 267 00e0 9342     		cmp	r3, r2
 268 00e2 07DA     		bge	.L17
 106:learn_color.c ****                     //print(str);
 269              		.loc 1 106 0
 270 00e4 0122     		movs	r2, #1
 271 00e6 4C49     		ldr	r1, .L31+24
 272 00e8 4548     		ldr	r0, .L31
 273 00ea FFF7FEFF 		bl	sprintf
 274              	.LVL29:
 108:learn_color.c ****                 }
 275              		.loc 1 108 0
 276 00ee 05AA     		add	r2, sp, #20
 277 00f0 A358     		ldr	r3, [r4, r2]
 278 00f2 3360     		str	r3, [r6]
 279              	.L17:
 110:learn_color.c ****                     sprintf(str, "check %d", 2);
 280              		.loc 1 110 0
 281 00f4 AB00     		lsls	r3, r5, #2
 282 00f6 05AA     		add	r2, sp, #20
 283 00f8 9B58     		ldr	r3, [r3, r2]
 284 00fa 4444     		add	r4, r4, r8
 285 00fc 2268     		ldr	r2, [r4]
 286 00fe 9342     		cmp	r3, r2
 287 0100 08DD     		ble	.L18
 111:learn_color.c ****                     //print(str);
 288              		.loc 1 111 0
ARM GAS  C:\Users\ADMIN\AppData\Local\Temp\ccWtGHBy.s 			page 10


 289 0102 0222     		movs	r2, #2
 290 0104 4449     		ldr	r1, .L31+24
 291 0106 3E48     		ldr	r0, .L31
 292 0108 FFF7FEFF 		bl	sprintf
 293              	.LVL30:
 113:learn_color.c ****                 }
 294              		.loc 1 113 0
 295 010c AB00     		lsls	r3, r5, #2
 296 010e 05AA     		add	r2, sp, #20
 297 0110 9B58     		ldr	r3, [r3, r2]
 298 0112 2360     		str	r3, [r4]
 299              	.L18:
 101:learn_color.c ****             
 300              		.loc 1 101 0 discriminator 2
 301 0114 0135     		adds	r5, r5, #1
 302              	.LVL31:
 303 0116 04E0     		b	.L16
 304              	.LVL32:
 305              	.L28:
 306              	.LBE4:
 307 0118 0025     		movs	r5, #0
 308 011a B246     		mov	r10, r6
 309 011c 01E0     		b	.L16
 310              	.L29:
 311 011e 0025     		movs	r5, #0
 312 0120 B246     		mov	r10, r6
 313              	.LVL33:
 314              	.L16:
 315              	.LBB5:
 101:learn_color.c ****             
 316              		.loc 1 101 0 is_stmt 0 discriminator 1
 317 0122 022D     		cmp	r5, #2
 318 0124 D1D9     		bls	.L19
 319 0126 5646     		mov	r6, r10
 320              	.LBE5:
 118:learn_color.c ****         }
 321              		.loc 1 118 0 is_stmt 1
 322 0128 0237     		adds	r7, r7, #2
 323              	.LVL34:
 324              	.L13:
  81:learn_color.c ****         getRGB(&color[0], &color[1], &color[2]);
 325              		.loc 1 81 0
 326 012a 029B     		ldr	r3, [sp, #8]
 327 012c 9F42     		cmp	r7, r3
 328 012e 98D3     		bcc	.L20
 127:learn_color.c ****     CyDelay(2000);
 329              		.loc 1 127 0
 330 0130 0022     		movs	r2, #0
 331 0132 364B     		ldr	r3, .L31+12
 332 0134 1A73     		strb	r2, [r3, #12]
 128:learn_color.c ****     
 333              		.loc 1 128 0
 334 0136 FA20     		movs	r0, #250
 335 0138 C000     		lsls	r0, r0, #3
 336 013a FFF7FEFF 		bl	CyDelay
 337              	.LVL35:
 130:learn_color.c ****         OpenCloseTestGates(count_settings, false);
ARM GAS  C:\Users\ADMIN\AppData\Local\Temp\ccWtGHBy.s 			page 11


 338              		.loc 1 130 0
 339 013e 5B46     		mov	r3, fp
 340 0140 002B     		cmp	r3, #0
 341 0142 03D1     		bne	.L21
 131:learn_color.c ****     }
 342              		.loc 1 131 0
 343 0144 0021     		movs	r1, #0
 344 0146 0398     		ldr	r0, [sp, #12]
 345 0148 FFF7FEFF 		bl	OpenCloseTestGates
 346              	.LVL36:
 347              	.L21:
 134:learn_color.c ****     
 348              		.loc 1 134 0
 349 014c 0020     		movs	r0, #0
 350 014e FFF7FEFF 		bl	PWM_Container_WriteCompare
 351              	.LVL37:
 137:learn_color.c ****         sprintf(str, "NONE");
 352              		.loc 1 137 0
 353 0152 5B46     		mov	r3, fp
 354 0154 002B     		cmp	r3, #0
 355 0156 26D0     		beq	.L30
 138:learn_color.c ****         print(str);
 356              		.loc 1 138 0
 357 0158 294C     		ldr	r4, .L31
 358 015a 0522     		movs	r2, #5
 359 015c 2F49     		ldr	r1, .L31+28
 360 015e 2000     		movs	r0, r4
 361 0160 FFF7FEFF 		bl	memcpy
 362              	.LVL38:
 139:learn_color.c ****         for (size_t i = 0; i<3; i++){
 363              		.loc 1 139 0
 364 0164 2000     		movs	r0, r4
 365 0166 FFF7FEFF 		bl	print
 366              	.LVL39:
 367              	.LBB6:
 140:learn_color.c ****             min_rgb[i] -= 5;
 368              		.loc 1 140 0
 369 016a 0022     		movs	r2, #0
 370 016c 4C46     		mov	r4, r9
 371 016e 4546     		mov	r5, r8
 372 0170 09E0     		b	.L23
 373              	.LVL40:
 374              	.L24:
 141:learn_color.c ****             max_rgb[i] += 5;
 375              		.loc 1 141 0 discriminator 3
 376 0172 9300     		lsls	r3, r2, #2
 377 0174 E018     		adds	r0, r4, r3
 378 0176 0168     		ldr	r1, [r0]
 379 0178 0539     		subs	r1, r1, #5
 380 017a 0160     		str	r1, [r0]
 142:learn_color.c ****         }
 381              		.loc 1 142 0 discriminator 3
 382 017c EB18     		adds	r3, r5, r3
 383 017e 1968     		ldr	r1, [r3]
 384 0180 0531     		adds	r1, r1, #5
 385 0182 1960     		str	r1, [r3]
 140:learn_color.c ****             min_rgb[i] -= 5;
ARM GAS  C:\Users\ADMIN\AppData\Local\Temp\ccWtGHBy.s 			page 12


 386              		.loc 1 140 0 discriminator 3
 387 0184 0132     		adds	r2, r2, #1
 388              	.LVL41:
 389              	.L23:
 140:learn_color.c ****             min_rgb[i] -= 5;
 390              		.loc 1 140 0 is_stmt 0 discriminator 1
 391 0186 022A     		cmp	r2, #2
 392 0188 F3D9     		bls	.L24
 393 018a A146     		mov	r9, r4
 394 018c A846     		mov	r8, r5
 395 018e 11E0     		b	.L25
 396              	.LVL42:
 397              	.L26:
 398              	.LBE6:
 399              	.LBB7:
 146:learn_color.c ****             max_rgb[i] += 2;
 400              		.loc 1 146 0 is_stmt 1 discriminator 3
 401 0190 9300     		lsls	r3, r2, #2
 402 0192 E018     		adds	r0, r4, r3
 403 0194 0168     		ldr	r1, [r0]
 404 0196 0239     		subs	r1, r1, #2
 405 0198 0160     		str	r1, [r0]
 147:learn_color.c ****         }
 406              		.loc 1 147 0 discriminator 3
 407 019a EB18     		adds	r3, r5, r3
 408 019c 1968     		ldr	r1, [r3]
 409 019e 0231     		adds	r1, r1, #2
 410 01a0 1960     		str	r1, [r3]
 145:learn_color.c ****             min_rgb[i] -= 2;
 411              		.loc 1 145 0 discriminator 3
 412 01a2 0132     		adds	r2, r2, #1
 413              	.LVL43:
 414 01a4 02E0     		b	.L22
 415              	.LVL44:
 416              	.L30:
 417              	.LBE7:
 418 01a6 0022     		movs	r2, #0
 419 01a8 4C46     		mov	r4, r9
 420 01aa 4546     		mov	r5, r8
 421              	.LVL45:
 422              	.L22:
 423              	.LBB8:
 145:learn_color.c ****             min_rgb[i] -= 2;
 424              		.loc 1 145 0 is_stmt 0 discriminator 1
 425 01ac 022A     		cmp	r2, #2
 426 01ae EFD9     		bls	.L26
 427 01b0 A146     		mov	r9, r4
 428 01b2 A846     		mov	r8, r5
 429              	.LVL46:
 430              	.L25:
 431              	.LBE8:
 156:learn_color.c ****     print(str);
 432              		.loc 1 156 0 is_stmt 1
 433 01b4 4B46     		mov	r3, r9
 434 01b6 5B68     		ldr	r3, [r3, #4]
 435 01b8 4A46     		mov	r2, r9
 436 01ba 1268     		ldr	r2, [r2]
ARM GAS  C:\Users\ADMIN\AppData\Local\Temp\ccWtGHBy.s 			page 13


 437 01bc 104C     		ldr	r4, .L31
 438              	.LVL47:
 439 01be 4946     		mov	r1, r9
 440 01c0 8968     		ldr	r1, [r1, #8]
 441 01c2 0091     		str	r1, [sp]
 442 01c4 1649     		ldr	r1, .L31+32
 443 01c6 2000     		movs	r0, r4
 444 01c8 FFF7FEFF 		bl	sprintf
 445              	.LVL48:
 157:learn_color.c ****     
 446              		.loc 1 157 0
 447 01cc 2000     		movs	r0, r4
 448 01ce FFF7FEFF 		bl	print
 449              	.LVL49:
 159:learn_color.c ****     print(str);
 450              		.loc 1 159 0
 451 01d2 4346     		mov	r3, r8
 452 01d4 5B68     		ldr	r3, [r3, #4]
 453 01d6 4246     		mov	r2, r8
 454 01d8 1268     		ldr	r2, [r2]
 455 01da 4146     		mov	r1, r8
 456 01dc 8968     		ldr	r1, [r1, #8]
 457 01de 0091     		str	r1, [sp]
 458 01e0 1049     		ldr	r1, .L31+36
 459 01e2 2000     		movs	r0, r4
 460 01e4 FFF7FEFF 		bl	sprintf
 461              	.LVL50:
 160:learn_color.c ****     
 462              		.loc 1 160 0
 463 01e8 2000     		movs	r0, r4
 464 01ea FFF7FEFF 		bl	print
 465              	.LVL51:
 466              	.L10:
 175:learn_color.c **** 
 467              		.loc 1 175 0
 468 01ee 0020     		movs	r0, #0
 469 01f0 09B0     		add	sp, sp, #36
 470              		@ sp needed
 471              	.LVL52:
 472              	.LVL53:
 473 01f2 3CBC     		pop	{r2, r3, r4, r5}
 474 01f4 9046     		mov	r8, r2
 475 01f6 9946     		mov	r9, r3
 476 01f8 A246     		mov	r10, r4
 477 01fa AB46     		mov	fp, r5
 478 01fc F0BD     		pop	{r4, r5, r6, r7, pc}
 479              	.L32:
 480 01fe C046     		.align	2
 481              	.L31:
 482 0200 00000000 		.word	str
 483 0204 00000000 		.word	.LC2
 484 0208 08000000 		.word	.LC5
 485 020c 00000000 		.word	.LANCHOR1
 486 0210 14000000 		.word	.LC8
 487 0214 28000000 		.word	.LC10
 488 0218 2C000000 		.word	.LC12
 489 021c 38000000 		.word	.LC14
ARM GAS  C:\Users\ADMIN\AppData\Local\Temp\ccWtGHBy.s 			page 14


 490 0220 40000000 		.word	.LC16
 491 0224 58000000 		.word	.LC18
 492              		.cfi_endproc
 493              	.LFE33:
 494              		.size	analyze_measurement_boundaries, .-analyze_measurement_boundaries
 495              		.section	.text.analyze_measurement_boundaries_none,"ax",%progbits
 496              		.align	2
 497              		.global	analyze_measurement_boundaries_none
 498              		.code	16
 499              		.thumb_func
 500              		.type	analyze_measurement_boundaries_none, %function
 501              	analyze_measurement_boundaries_none:
 502              	.LFB34:
 177:learn_color.c ****     analyze_measurement_boundaries(min_rgb, max_rgb, true, 0);
 503              		.loc 1 177 0
 504              		.cfi_startproc
 505              		@ args = 0, pretend = 0, frame = 0
 506              		@ frame_needed = 0, uses_anonymous_args = 0
 507              	.LVL54:
 508 0000 10B5     		push	{r4, lr}
 509              		.cfi_def_cfa_offset 8
 510              		.cfi_offset 4, -8
 511              		.cfi_offset 14, -4
 178:learn_color.c **** }
 512              		.loc 1 178 0
 513 0002 0023     		movs	r3, #0
 514 0004 0122     		movs	r2, #1
 515 0006 FFF7FEFF 		bl	analyze_measurement_boundaries
 516              	.LVL55:
 179:learn_color.c **** void analyze_measurement_boundaries_color(int min_rgb[3], int max_rgb[3], int count_settings){
 517              		.loc 1 179 0
 518              		@ sp needed
 519 000a 10BD     		pop	{r4, pc}
 520              		.cfi_endproc
 521              	.LFE34:
 522              		.size	analyze_measurement_boundaries_none, .-analyze_measurement_boundaries_none
 523              		.section	.text.analyze_measurement_boundaries_color,"ax",%progbits
 524              		.align	2
 525              		.global	analyze_measurement_boundaries_color
 526              		.code	16
 527              		.thumb_func
 528              		.type	analyze_measurement_boundaries_color, %function
 529              	analyze_measurement_boundaries_color:
 530              	.LFB35:
 180:learn_color.c ****     analyze_measurement_boundaries(min_rgb, max_rgb, false, count_settings);
 531              		.loc 1 180 0
 532              		.cfi_startproc
 533              		@ args = 0, pretend = 0, frame = 0
 534              		@ frame_needed = 0, uses_anonymous_args = 0
 535              	.LVL56:
 536 0000 10B5     		push	{r4, lr}
 537              		.cfi_def_cfa_offset 8
 538              		.cfi_offset 4, -8
 539              		.cfi_offset 14, -4
 540 0002 1300     		movs	r3, r2
 181:learn_color.c **** }
 541              		.loc 1 181 0
ARM GAS  C:\Users\ADMIN\AppData\Local\Temp\ccWtGHBy.s 			page 15


 542 0004 0022     		movs	r2, #0
 543              	.LVL57:
 544 0006 FFF7FEFF 		bl	analyze_measurement_boundaries
 545              	.LVL58:
 182:learn_color.c **** 
 546              		.loc 1 182 0
 547              		@ sp needed
 548 000a 10BD     		pop	{r4, pc}
 549              		.cfi_endproc
 550              	.LFE35:
 551              		.size	analyze_measurement_boundaries_color, .-analyze_measurement_boundaries_color
 552              		.comm	boundaries,144,4
 553              		.comm	max_cur_color,12,4
 554              		.comm	min_cur_color,12,4
 555              		.global	max_none_color
 556              		.global	min_none_color
 557              		.global	button_pushed
 558              		.data
 559              		.align	2
 560              		.set	.LANCHOR0,. + 0
 561              		.type	min_none_color, %object
 562              		.size	min_none_color, 12
 563              	min_none_color:
 564 0000 FF000000 		.word	255
 565 0004 FF000000 		.word	255
 566 0008 FF000000 		.word	255
 567              		.section	.rodata.str1.4,"aMS",%progbits,1
 568              		.align	2
 569              	.LC2:
 570 0000 6E6F6E65 		.ascii	"none %d\000"
 570      20256400 
 571              	.LC5:
 572 0008 73657474 		.ascii	"settings %d\000"
 572      696E6773 
 572      20256400 
 573              	.LC8:
 574 0014 72202564 		.ascii	"r %d | g %d | b %d\000"
 574      207C2067 
 574      20256420 
 574      7C206220 
 574      256400
 575 0027 00       		.space	1
 576              	.LC10:
 577 0028 534F5300 		.ascii	"SOS\000"
 578              	.LC12:
 579 002c 63686563 		.ascii	"check %d\000"
 579      6B202564 
 579      00
 580 0035 000000   		.space	3
 581              	.LC14:
 582 0038 4E4F4E45 		.ascii	"NONE\000"
 582      00
 583 003d 000000   		.space	3
 584              	.LC16:
 585 0040 6D696E20 		.ascii	"min r %d | g %d | b %d\000"
 585      72202564 
 585      207C2067 
ARM GAS  C:\Users\ADMIN\AppData\Local\Temp\ccWtGHBy.s 			page 16


 585      20256420 
 585      7C206220 
 586 0057 00       		.space	1
 587              	.LC18:
 588 0058 6D617820 		.ascii	"max r %d | g %d | b %d\000"
 588      72202564 
 588      207C2067 
 588      20256420 
 588      7C206220 
 589              		.bss
 590              		.align	2
 591              		.set	.LANCHOR1,. + 0
 592              		.type	max_none_color, %object
 593              		.size	max_none_color, 12
 594              	max_none_color:
 595 0000 00000000 		.space	12
 595      00000000 
 595      00000000 
 596              		.type	button_pushed, %object
 597              		.size	button_pushed, 1
 598              	button_pushed:
 599 000c 00       		.space	1
 600              		.text
 601              	.Letext0:
 602              		.file 2 "learn_color.h"
 603              		.file 3 "c:\\program files (x86)\\cypress\\psoc creator\\4.4\\psoc creator\\import\\gnu\\arm\\5.4.
 604              		.file 4 "Generated_Source\\PSoC4/PWM_Container.h"
 605              		.file 5 "main.h"
 606              		.file 6 "tcs34725.h"
 607              		.file 7 "utils.h"
 608              		.file 8 "Generated_Source\\PSoC4/CyLib.h"
 609              		.file 9 "c:\\program files (x86)\\cypress\\psoc creator\\4.4\\psoc creator\\import\\gnu\\arm\\5.4.