ARM GAS  C:\Users\ADMIN\AppData\Local\Temp\ccJfVV22.s 			page 1


   1              		.syntax unified
   2              		.cpu cortex-m0
   3              		.fpu softvfp
   4              		.eabi_attribute 20, 1
   5              		.eabi_attribute 21, 1
   6              		.eabi_attribute 23, 3
   7              		.eabi_attribute 24, 1
   8              		.eabi_attribute 25, 1
   9              		.eabi_attribute 26, 1
  10              		.eabi_attribute 30, 1
  11              		.eabi_attribute 34, 0
  12              		.eabi_attribute 18, 4
  13              		.thumb
  14              		.syntax unified
  15              		.file	"main.c"
  16              		.text
  17              	.Ltext0:
  18              		.cfi_sections	.debug_frame
  19              		.section	.text.SW_Handler,"ax",%progbits
  20              		.align	2
  21              		.global	SW_Handler
  22              		.code	16
  23              		.thumb_func
  24              		.type	SW_Handler, %function
  25              	SW_Handler:
  26              	.LFB33:
  27              		.file 1 "main.c"
   1:main.c        **** #include <stdio.h>
   2:main.c        **** #include <stdlib.h>
   3:main.c        **** #include <stdbool.h>
   4:main.c        **** 
   5:main.c        **** #include "project.h"
   6:main.c        **** #include "tcs34725.h"
   7:main.c        **** #include "utils.h"
   8:main.c        **** #include "learn_color.h"
   9:main.c        **** 
  10:main.c        **** #define CW 0
  11:main.c        **** #define CCW 1
  12:main.c        **** 
  13:main.c        **** #define test 30
  14:main.c        **** 
  15:main.c        **** 
  16:main.c        **** #define DELAY_STOP_AFTER_CLOSE 10
  17:main.c        **** #define DELAY_STOP_AFTER_OPEN 550
  18:main.c        **** 
  19:main.c        **** 
  20:main.c        **** void RunMotors45Degrees(bool direction);
  21:main.c        **** void OpenCloseGates();
  22:main.c        **** 
  23:main.c        **** 
  24:main.c        **** extern uint8_t _tcs34725Initialised;
  25:main.c        **** 
  26:main.c        **** extern struct RGB black_led, red_led, green_led;
  27:main.c        **** 
  28:main.c        **** extern bool state;
  29:main.c        **** 
  30:main.c        **** 
ARM GAS  C:\Users\ADMIN\AppData\Local\Temp\ccJfVV22.s 			page 2


  31:main.c        **** struct motors{
  32:main.c        ****     bool motor_1;
  33:main.c        ****     bool motor_2_5;
  34:main.c        ****     bool motor_3_4;
  35:main.c        **** };
  36:main.c        **** struct motors gates = {1, 1, 1};
  37:main.c        **** 
  38:main.c        **** uint8_t current_measure[5] = {BLACK, BLACK, BLACK, BLACK, BLACK};
  39:main.c        **** 
  40:main.c        **** uint8_t previous_state = BLACK;
  41:main.c        **** 
  42:main.c        **** //int last_int_time = 0;
  43:main.c        **** 
  44:main.c        **** int my_test = 0;
  45:main.c        **** 
  46:main.c        **** int count_settings = 0;
  47:main.c        **** 
  48:main.c        **** int joystick = 0;
  49:main.c        **** 
  50:main.c        **** 
  51:main.c        **** CY_ISR(SW_Handler)
  52:main.c        **** {
  28              		.loc 1 52 0
  29              		.cfi_startproc
  30              		@ args = 0, pretend = 0, frame = 0
  31              		@ frame_needed = 0, uses_anonymous_args = 0
  32 0000 10B5     		push	{r4, lr}
  33              		.cfi_def_cfa_offset 8
  34              		.cfi_offset 4, -8
  35              		.cfi_offset 14, -4
  53:main.c        ****     count_settings++;
  36              		.loc 1 53 0
  37 0002 0A4B     		ldr	r3, .L4
  38 0004 1A68     		ldr	r2, [r3]
  39 0006 0132     		adds	r2, r2, #1
  40 0008 1A60     		str	r2, [r3]
  54:main.c        ****     //if (button_pushed){
  55:main.c        ****        // count_settings++;
  56:main.c        ****     //}
  57:main.c        ****     button_pushed = true;
  41              		.loc 1 57 0
  42 000a 0121     		movs	r1, #1
  43 000c 084A     		ldr	r2, .L4+4
  44 000e 1170     		strb	r1, [r2]
  58:main.c        ****     
  59:main.c        ****     
  60:main.c        ****     if (my_test == 255){
  45              		.loc 1 60 0
  46 0010 5B68     		ldr	r3, [r3, #4]
  47 0012 FF2B     		cmp	r3, #255
  48 0014 03D1     		bne	.L2
  61:main.c        ****         my_test = 0;
  49              		.loc 1 61 0
  50 0016 0022     		movs	r2, #0
  51 0018 044B     		ldr	r3, .L4
  52 001a 5A60     		str	r2, [r3, #4]
  53 001c 02E0     		b	.L3
ARM GAS  C:\Users\ADMIN\AppData\Local\Temp\ccJfVV22.s 			page 3


  54              	.L2:
  62:main.c        ****     }else{
  63:main.c        ****        my_test = 255;
  55              		.loc 1 63 0
  56 001e FF22     		movs	r2, #255
  57 0020 024B     		ldr	r3, .L4
  58 0022 5A60     		str	r2, [r3, #4]
  59              	.L3:
  64:main.c        ****     }
  65:main.c        ****     
  66:main.c        ****     SW_ClearInterrupt();
  60              		.loc 1 66 0
  61 0024 FFF7FEFF 		bl	SW_ClearInterrupt
  62              	.LVL0:
  67:main.c        **** }
  63              		.loc 1 67 0
  64              		@ sp needed
  65 0028 10BD     		pop	{r4, pc}
  66              	.L5:
  67 002a C046     		.align	2
  68              	.L4:
  69 002c 00000000 		.word	.LANCHOR0
  70 0030 00000000 		.word	button_pushed
  71              		.cfi_endproc
  72              	.LFE33:
  73              		.size	SW_Handler, .-SW_Handler
  74              		.section	.text.SW_UpDown_Handler,"ax",%progbits
  75              		.align	2
  76              		.global	SW_UpDown_Handler
  77              		.code	16
  78              		.thumb_func
  79              		.type	SW_UpDown_Handler, %function
  80              	SW_UpDown_Handler:
  81              	.LFB34:
  68:main.c        **** 
  69:main.c        **** CY_ISR(SW_UpDown_Handler)
  70:main.c        **** {
  82              		.loc 1 70 0
  83              		.cfi_startproc
  84              		@ args = 0, pretend = 0, frame = 0
  85              		@ frame_needed = 0, uses_anonymous_args = 0
  86 0000 10B5     		push	{r4, lr}
  87              		.cfi_def_cfa_offset 8
  88              		.cfi_offset 4, -8
  89              		.cfi_offset 14, -4
  71:main.c        **** 
  72:main.c        ****     joystick = ADC_GetResult16(0);
  90              		.loc 1 72 0
  91 0002 0020     		movs	r0, #0
  92 0004 FFF7FEFF 		bl	ADC_GetResult16
  93              	.LVL1:
  94 0008 024B     		ldr	r3, .L7
  95 000a 9860     		str	r0, [r3, #8]
  73:main.c        ****     
  74:main.c        ****     if (joystick){
  75:main.c        ****     }
  76:main.c        ****     
ARM GAS  C:\Users\ADMIN\AppData\Local\Temp\ccJfVV22.s 			page 4


  77:main.c        ****     SW_UpDown_ClearInterrupt();
  96              		.loc 1 77 0
  97 000c FFF7FEFF 		bl	SW_UpDown_ClearInterrupt
  98              	.LVL2:
  78:main.c        **** }
  99              		.loc 1 78 0
 100              		@ sp needed
 101 0010 10BD     		pop	{r4, pc}
 102              	.L8:
 103 0012 C046     		.align	2
 104              	.L7:
 105 0014 00000000 		.word	.LANCHOR0
 106              		.cfi_endproc
 107              	.LFE34:
 108              		.size	SW_UpDown_Handler, .-SW_UpDown_Handler
 109              		.section	.text.RunMotors45Degrees,"ax",%progbits
 110              		.align	2
 111              		.global	RunMotors45Degrees
 112              		.code	16
 113              		.thumb_func
 114              		.type	RunMotors45Degrees, %function
 115              	RunMotors45Degrees:
 116              	.LFB36:
  79:main.c        **** 
  80:main.c        **** 
  81:main.c        **** int main(void)
  82:main.c        **** {
  83:main.c        ****     print("START");
  84:main.c        ****     
  85:main.c        ****     CyGlobalIntEnable; /* Enable global interrupts. */
  86:main.c        ****     
  87:main.c        ****     
  88:main.c        ****     I2C_Start();
  89:main.c        ****     UART_Start();
  90:main.c        ****     Clock_Start();
  91:main.c        ****     
  92:main.c        ****     
  93:main.c        ****     PWM_RED_Start();
  94:main.c        ****     PWM_GREEN_Start();
  95:main.c        ****     PWM_BLUE_Start();
  96:main.c        ****     
  97:main.c        ****     
  98:main.c        **** 
  99:main.c        ****     LED(black_led);
 100:main.c        ****     //PWM_RED_WriteCompare(255);
 101:main.c        ****     //PWM_GREEN_WriteCompare(255);
 102:main.c        ****     //PWM_BLUE_WriteCompare(255);
 103:main.c        ****     
 104:main.c        ****     isr_SW_StartEx(SW_Handler);
 105:main.c        ****     isr_SW_UpDown_StartEx(SW_UpDown_Handler);
 106:main.c        ****     
 107:main.c        ****     while (_tcs34725Initialised == false){
 108:main.c        ****         init(TCS34725_INTEGRATIONTIME_24MS, TCS34725_GAIN_1X);
 109:main.c        ****     }
 110:main.c        ****       
 111:main.c        ****     int red, green, blue;
 112:main.c        ****     uint8_t color = 0;
ARM GAS  C:\Users\ADMIN\AppData\Local\Temp\ccJfVV22.s 			page 5


 113:main.c        ****     
 114:main.c        ****     OpenCloseGates();
 115:main.c        ****     CyDelay(1000);
 116:main.c        ****     
 117:main.c        ****     
 118:main.c        ****     int colors[5];
 119:main.c        ****     
 120:main.c        ****     //int colors_test[test][3];
 121:main.c        ****     size_t idx = 0;
 122:main.c        ****     
 123:main.c        ****     ADC_Start();
 124:main.c        ****     ADC_StartConvert();
 125:main.c        ****     
 126:main.c        ****     //fill_boundaries();
 127:main.c        ****     PWM_Container_Start();
 128:main.c        ****     PWM_Container_WriteCompare(0);
 129:main.c        ****     //CyDelay(2000);
 130:main.c        ****     
 131:main.c        ****     
 132:main.c        ****     while (count_settings < 8){
 133:main.c        ****         preparation(count_settings);
 134:main.c        ****     }
 135:main.c        ****     
 136:main.c        ****     PWM_Container_WriteCompare(1);
 137:main.c        ****     
 138:main.c        ****     for(;;)
 139:main.c        ****     {  
 140:main.c        ****         sprintf(str, "joystick %d   \n", joystick);
 141:main.c        ****         //print(str);
 142:main.c        ****         
 143:main.c        ****         
 144:main.c        ****         state = CANDY;
 145:main.c        ****         getRGB(&red, &green, &blue);
 146:main.c        ****         color = getColor(red, green, blue);
 147:main.c        ****             
 148:main.c        ****             //lightColor(color);
 149:main.c        ****             //CyDelay(1000);
 150:main.c        ****             //state = NONE;
 151:main.c        ****             
 152:main.c        ****             if (state == CANDY){
 153:main.c        ****                 
 154:main.c        ****                 switch (color){
 155:main.c        ****                     case RED:
 156:main.c        ****                         gates = (struct motors){0, 0, 0};
 157:main.c        ****                         OpenCloseGates();
 158:main.c        ****                         break;
 159:main.c        ****                     case ORANGE:
 160:main.c        ****                         gates = (struct motors){0, 0, 1};
 161:main.c        ****                         OpenCloseGates();
 162:main.c        ****                         break;
 163:main.c        ****                     case YELLOW:
 164:main.c        ****                         gates = (struct motors){0, 1, 0};
 165:main.c        ****                         OpenCloseGates();
 166:main.c        ****                         break;
 167:main.c        ****                     case GREEN:
 168:main.c        ****                         gates = (struct motors){0, 1, 1};
 169:main.c        ****                         OpenCloseGates();
ARM GAS  C:\Users\ADMIN\AppData\Local\Temp\ccJfVV22.s 			page 6


 170:main.c        ****                         break;
 171:main.c        ****                     case BLUE:
 172:main.c        ****                         gates = (struct motors){1, 0, 0};
 173:main.c        ****                         OpenCloseGates();
 174:main.c        ****                         break;
 175:main.c        ****                     case BROWN:
 176:main.c        ****                         gates = (struct motors){1, 0, 1};
 177:main.c        ****                         OpenCloseGates();
 178:main.c        ****                         break;
 179:main.c        ****                 }
 180:main.c        ****             
 181:main.c        ****             }
 182:main.c        ****             
 183:main.c        ****         
 184:main.c        ****         
 185:main.c        ****         }
 186:main.c        ****         
 187:main.c        **** }
 188:main.c        **** 
 189:main.c        **** 
 190:main.c        **** 
 191:main.c        **** //function for running needed drivers
 192:main.c        **** //EXAMPLE: if we want to run the third driver, arguments will be 0,0,1
 193:main.c        **** //argument that equals to 0 means not to run this driver, 1 means to run
 194:main.c        **** void RunMotors45Degrees(bool direction){
 117              		.loc 1 194 0
 118              		.cfi_startproc
 119              		@ args = 0, pretend = 0, frame = 0
 120              		@ frame_needed = 0, uses_anonymous_args = 0
 121              	.LVL3:
 122 0000 10B5     		push	{r4, lr}
 123              		.cfi_def_cfa_offset 8
 124              		.cfi_offset 4, -8
 125              		.cfi_offset 14, -4
 126 0002 0400     		movs	r4, r0
 195:main.c        ****     
 196:main.c        ****     //set direction
 197:main.c        ****     Dir_1_Write(direction);
 127              		.loc 1 197 0
 128 0004 FFF7FEFF 		bl	Dir_1_Write
 129              	.LVL4:
 198:main.c        ****     Dir_2_5_Write(direction);
 130              		.loc 1 198 0
 131 0008 2000     		movs	r0, r4
 132 000a FFF7FEFF 		bl	Dir_2_5_Write
 133              	.LVL5:
 199:main.c        ****     Dir_3_4_Write(direction);
 134              		.loc 1 199 0
 135 000e 2000     		movs	r0, r4
 136 0010 FFF7FEFF 		bl	Dir_3_4_Write
 137              	.LVL6:
 200:main.c        ****     
 201:main.c        ****     //count value of counter to run needed motors
 202:main.c        ****     uint8_t val = 0b000;
 203:main.c        ****     val = val | gates.motor_1 | (gates.motor_2_5 << 1) | (gates.motor_3_4 << 2);
 138              		.loc 1 203 0
 139 0014 0C4B     		ldr	r3, .L12
ARM GAS  C:\Users\ADMIN\AppData\Local\Temp\ccJfVV22.s 			page 7


 140 0016 1A78     		ldrb	r2, [r3]
 141 0018 5878     		ldrb	r0, [r3, #1]
 142 001a 4000     		lsls	r0, r0, #1
 143 001c 9B78     		ldrb	r3, [r3, #2]
 144 001e 9B00     		lsls	r3, r3, #2
 145 0020 1043     		orrs	r0, r2
 146 0022 1843     		orrs	r0, r3
 147 0024 C0B2     		uxtb	r0, r0
 148              	.LVL7:
 204:main.c        ****     
 205:main.c        ****     Control_Reg_2_Write(val);
 149              		.loc 1 205 0
 150 0026 FFF7FEFF 		bl	Control_Reg_2_Write
 151              	.LVL8:
 206:main.c        ****     
 207:main.c        ****     Control_Reg_1_Write(true);
 152              		.loc 1 207 0
 153 002a 0120     		movs	r0, #1
 154 002c FFF7FEFF 		bl	Control_Reg_1_Write
 155              	.LVL9:
 156              	.L10:
 208:main.c        ****     
 209:main.c        ****     while (Status_Reg_1_Read() != true);
 157              		.loc 1 209 0 discriminator 1
 158 0030 FFF7FEFF 		bl	Status_Reg_1_Read
 159              	.LVL10:
 160 0034 0128     		cmp	r0, #1
 161 0036 FBD1     		bne	.L10
 210:main.c        ****     
 211:main.c        ****     Control_Reg_1_Write(false);
 162              		.loc 1 211 0
 163 0038 0020     		movs	r0, #0
 164 003a FFF7FEFF 		bl	Control_Reg_1_Write
 165              	.LVL11:
 166              	.L11:
 212:main.c        ****     
 213:main.c        ****     while (Status_Reg_1_Read() != false);
 167              		.loc 1 213 0 discriminator 1
 168 003e FFF7FEFF 		bl	Status_Reg_1_Read
 169              	.LVL12:
 170 0042 0028     		cmp	r0, #0
 171 0044 FBD1     		bne	.L11
 214:main.c        **** }
 172              		.loc 1 214 0
 173              		@ sp needed
 174 0046 10BD     		pop	{r4, pc}
 175              	.L13:
 176              		.align	2
 177              	.L12:
 178 0048 00000000 		.word	.LANCHOR1
 179              		.cfi_endproc
 180              	.LFE36:
 181              		.size	RunMotors45Degrees, .-RunMotors45Degrees
 182              		.section	.text.OpenCloseGates,"ax",%progbits
 183              		.align	2
 184              		.global	OpenCloseGates
 185              		.code	16
ARM GAS  C:\Users\ADMIN\AppData\Local\Temp\ccJfVV22.s 			page 8


 186              		.thumb_func
 187              		.type	OpenCloseGates, %function
 188              	OpenCloseGates:
 189              	.LFB37:
 215:main.c        **** 
 216:main.c        **** void OpenCloseGates(){
 190              		.loc 1 216 0
 191              		.cfi_startproc
 192              		@ args = 0, pretend = 0, frame = 0
 193              		@ frame_needed = 0, uses_anonymous_args = 0
 194 0000 10B5     		push	{r4, lr}
 195              		.cfi_def_cfa_offset 8
 196              		.cfi_offset 4, -8
 197              		.cfi_offset 14, -4
 217:main.c        ****     
 218:main.c        ****     //run needed motors 45 degrees clockwise
 219:main.c        ****     RunMotors45Degrees(CCW);
 198              		.loc 1 219 0
 199 0002 0120     		movs	r0, #1
 200 0004 FFF7FEFF 		bl	RunMotors45Degrees
 201              	.LVL13:
 220:main.c        ****     CyDelay(190);
 202              		.loc 1 220 0
 203 0008 BE20     		movs	r0, #190
 204 000a FFF7FEFF 		bl	CyDelay
 205              	.LVL14:
 221:main.c        ****     
 222:main.c        ****     PWM_Container_Stop();
 206              		.loc 1 222 0
 207 000e FFF7FEFF 		bl	PWM_Container_Stop
 208              	.LVL15:
 223:main.c        ****     CyDelay(DELAY_STOP_AFTER_OPEN);
 209              		.loc 1 223 0
 210 0012 0648     		ldr	r0, .L15
 211 0014 FFF7FEFF 		bl	CyDelay
 212              	.LVL16:
 224:main.c        ****     
 225:main.c        ****     //run needed motors 45 degrees counterclockwise
 226:main.c        ****     RunMotors45Degrees(CW);
 213              		.loc 1 226 0
 214 0018 0020     		movs	r0, #0
 215 001a FFF7FEFF 		bl	RunMotors45Degrees
 216              	.LVL17:
 227:main.c        ****     
 228:main.c        ****     CyDelay(DELAY_STOP_AFTER_CLOSE);
 217              		.loc 1 228 0
 218 001e 0A20     		movs	r0, #10
 219 0020 FFF7FEFF 		bl	CyDelay
 220              	.LVL18:
 229:main.c        ****     PWM_Container_Start();
 221              		.loc 1 229 0
 222 0024 FFF7FEFF 		bl	PWM_Container_Start
 223              	.LVL19:
 230:main.c        **** }
 224              		.loc 1 230 0
 225              		@ sp needed
 226 0028 10BD     		pop	{r4, pc}
ARM GAS  C:\Users\ADMIN\AppData\Local\Temp\ccJfVV22.s 			page 9


 227              	.L16:
 228 002a C046     		.align	2
 229              	.L15:
 230 002c 26020000 		.word	550
 231              		.cfi_endproc
 232              	.LFE37:
 233              		.size	OpenCloseGates, .-OpenCloseGates
 234              		.section	.text.main,"ax",%progbits
 235              		.align	2
 236              		.global	main
 237              		.code	16
 238              		.thumb_func
 239              		.type	main, %function
 240              	main:
 241              	.LFB35:
  82:main.c        ****     print("START");
 242              		.loc 1 82 0
 243              		.cfi_startproc
 244              		@ args = 0, pretend = 0, frame = 16
 245              		@ frame_needed = 0, uses_anonymous_args = 0
 246 0000 10B5     		push	{r4, lr}
 247              		.cfi_def_cfa_offset 8
 248              		.cfi_offset 4, -8
 249              		.cfi_offset 14, -4
 250 0002 84B0     		sub	sp, sp, #16
 251              		.cfi_def_cfa_offset 24
  83:main.c        ****     
 252              		.loc 1 83 0
 253 0004 4948     		ldr	r0, .L31
 254 0006 FFF7FEFF 		bl	print
 255              	.LVL20:
  85:main.c        ****     
 256              		.loc 1 85 0
 257              		.syntax divided
 258              	@ 85 "main.c" 1
 259 000a 62B6     		CPSIE   i
 260              	@ 0 "" 2
  88:main.c        ****     UART_Start();
 261              		.loc 1 88 0
 262              		.thumb
 263              		.syntax unified
 264 000c FFF7FEFF 		bl	I2C_Start
 265              	.LVL21:
  89:main.c        ****     Clock_Start();
 266              		.loc 1 89 0
 267 0010 FFF7FEFF 		bl	UART_Start
 268              	.LVL22:
  90:main.c        ****     
 269              		.loc 1 90 0
 270 0014 FFF7FEFF 		bl	Clock_Start
 271              	.LVL23:
  93:main.c        ****     PWM_GREEN_Start();
 272              		.loc 1 93 0
 273 0018 FFF7FEFF 		bl	PWM_RED_Start
 274              	.LVL24:
  94:main.c        ****     PWM_BLUE_Start();
 275              		.loc 1 94 0
ARM GAS  C:\Users\ADMIN\AppData\Local\Temp\ccJfVV22.s 			page 10


 276 001c FFF7FEFF 		bl	PWM_GREEN_Start
 277              	.LVL25:
  95:main.c        ****     
 278              		.loc 1 95 0
 279 0020 FFF7FEFF 		bl	PWM_BLUE_Start
 280              	.LVL26:
  99:main.c        ****     //PWM_RED_WriteCompare(255);
 281              		.loc 1 99 0
 282 0024 4249     		ldr	r1, .L31+4
 283 0026 0A78     		ldrb	r2, [r1]
 284 0028 4878     		ldrb	r0, [r1, #1]
 285 002a 0002     		lsls	r0, r0, #8
 286 002c 0300     		movs	r3, r0
 287 002e 1343     		orrs	r3, r2
 288 0030 8878     		ldrb	r0, [r1, #2]
 289 0032 0004     		lsls	r0, r0, #16
 290 0034 1843     		orrs	r0, r3
 291 0036 FFF7FEFF 		bl	LED
 292              	.LVL27:
 104:main.c        ****     isr_SW_UpDown_StartEx(SW_UpDown_Handler);
 293              		.loc 1 104 0
 294 003a 3E48     		ldr	r0, .L31+8
 295 003c FFF7FEFF 		bl	isr_SW_StartEx
 296              	.LVL28:
 105:main.c        ****     
 297              		.loc 1 105 0
 298 0040 3D48     		ldr	r0, .L31+12
 299 0042 FFF7FEFF 		bl	isr_SW_UpDown_StartEx
 300              	.LVL29:
 107:main.c        ****         init(TCS34725_INTEGRATIONTIME_24MS, TCS34725_GAIN_1X);
 301              		.loc 1 107 0
 302 0046 03E0     		b	.L18
 303              	.L19:
 108:main.c        ****     }
 304              		.loc 1 108 0
 305 0048 0021     		movs	r1, #0
 306 004a F620     		movs	r0, #246
 307 004c FFF7FEFF 		bl	init
 308              	.LVL30:
 309              	.L18:
 107:main.c        ****         init(TCS34725_INTEGRATIONTIME_24MS, TCS34725_GAIN_1X);
 310              		.loc 1 107 0
 311 0050 3A4B     		ldr	r3, .L31+16
 312 0052 1B78     		ldrb	r3, [r3]
 313 0054 002B     		cmp	r3, #0
 314 0056 F7D0     		beq	.L19
 315              	.LVL31:
 114:main.c        ****     CyDelay(1000);
 316              		.loc 1 114 0
 317 0058 FFF7FEFF 		bl	OpenCloseGates
 318              	.LVL32:
 115:main.c        ****     
 319              		.loc 1 115 0
 320 005c FA20     		movs	r0, #250
 321 005e 8000     		lsls	r0, r0, #2
 322 0060 FFF7FEFF 		bl	CyDelay
 323              	.LVL33:
ARM GAS  C:\Users\ADMIN\AppData\Local\Temp\ccJfVV22.s 			page 11


 123:main.c        ****     ADC_StartConvert();
 324              		.loc 1 123 0
 325 0064 FFF7FEFF 		bl	ADC_Start
 326              	.LVL34:
 124:main.c        ****     
 327              		.loc 1 124 0
 328 0068 FFF7FEFF 		bl	ADC_StartConvert
 329              	.LVL35:
 127:main.c        ****     PWM_Container_WriteCompare(0);
 330              		.loc 1 127 0
 331 006c FFF7FEFF 		bl	PWM_Container_Start
 332              	.LVL36:
 128:main.c        ****     //CyDelay(2000);
 333              		.loc 1 128 0
 334 0070 0020     		movs	r0, #0
 335 0072 FFF7FEFF 		bl	PWM_Container_WriteCompare
 336              	.LVL37:
 132:main.c        ****         preparation(count_settings);
 337              		.loc 1 132 0
 338 0076 01E0     		b	.L20
 339              	.L21:
 133:main.c        ****     }
 340              		.loc 1 133 0
 341 0078 FFF7FEFF 		bl	preparation
 342              	.LVL38:
 343              	.L20:
 132:main.c        ****         preparation(count_settings);
 344              		.loc 1 132 0
 345 007c 304B     		ldr	r3, .L31+20
 346 007e 1868     		ldr	r0, [r3]
 347 0080 0728     		cmp	r0, #7
 348 0082 F9DD     		ble	.L21
 136:main.c        ****     
 349              		.loc 1 136 0
 350 0084 0120     		movs	r0, #1
 351 0086 FFF7FEFF 		bl	PWM_Container_WriteCompare
 352              	.LVL39:
 353              	.L22:
 140:main.c        ****         //print(str);
 354              		.loc 1 140 0
 355 008a 2D4B     		ldr	r3, .L31+20
 356 008c 9A68     		ldr	r2, [r3, #8]
 357 008e 2D49     		ldr	r1, .L31+24
 358 0090 2D48     		ldr	r0, .L31+28
 359 0092 FFF7FEFF 		bl	sprintf
 360              	.LVL40:
 144:main.c        ****         getRGB(&red, &green, &blue);
 361              		.loc 1 144 0
 362 0096 2D4C     		ldr	r4, .L31+32
 363 0098 0123     		movs	r3, #1
 364 009a 2370     		strb	r3, [r4]
 145:main.c        ****         color = getColor(red, green, blue);
 365              		.loc 1 145 0
 366 009c 01AA     		add	r2, sp, #4
 367 009e 02A9     		add	r1, sp, #8
 368 00a0 03A8     		add	r0, sp, #12
 369 00a2 FFF7FEFF 		bl	getRGB
ARM GAS  C:\Users\ADMIN\AppData\Local\Temp\ccJfVV22.s 			page 12


 370              	.LVL41:
 146:main.c        ****             
 371              		.loc 1 146 0
 372 00a6 019A     		ldr	r2, [sp, #4]
 373 00a8 0299     		ldr	r1, [sp, #8]
 374 00aa 0398     		ldr	r0, [sp, #12]
 375 00ac FFF7FEFF 		bl	getColor
 376              	.LVL42:
 152:main.c        ****                 
 377              		.loc 1 152 0
 378 00b0 2378     		ldrb	r3, [r4]
 379 00b2 002B     		cmp	r3, #0
 380 00b4 E9D0     		beq	.L22
 154:main.c        ****                     case RED:
 381              		.loc 1 154 0
 382 00b6 0628     		cmp	r0, #6
 383 00b8 E7D8     		bhi	.L22
 384 00ba 8000     		lsls	r0, r0, #2
 385              	.LVL43:
 386 00bc 244B     		ldr	r3, .L31+36
 387 00be 1B58     		ldr	r3, [r3, r0]
 388 00c0 9F46     		mov	pc, r3
 389              		.section	.rodata
 390              		.align	2
 391              	.L25:
 392 0000 8A000000 		.word	.L22
 393 0004 C2000000 		.word	.L24
 394 0008 E4000000 		.word	.L26
 395 000c D2000000 		.word	.L27
 396 0010 F6000000 		.word	.L28
 397 0014 06010000 		.word	.L29
 398 0018 18010000 		.word	.L30
 399              		.section	.text.main
 400              	.L24:
 156:main.c        ****                         OpenCloseGates();
 401              		.loc 1 156 0
 402 00c2 244B     		ldr	r3, .L31+40
 403 00c4 0022     		movs	r2, #0
 404 00c6 1A70     		strb	r2, [r3]
 405 00c8 5A70     		strb	r2, [r3, #1]
 406 00ca 9A70     		strb	r2, [r3, #2]
 157:main.c        ****                         break;
 407              		.loc 1 157 0
 408 00cc FFF7FEFF 		bl	OpenCloseGates
 409              	.LVL44:
 158:main.c        ****                     case ORANGE:
 410              		.loc 1 158 0
 411 00d0 DBE7     		b	.L22
 412              	.L27:
 160:main.c        ****                         OpenCloseGates();
 413              		.loc 1 160 0
 414 00d2 204B     		ldr	r3, .L31+40
 415 00d4 0022     		movs	r2, #0
 416 00d6 1A70     		strb	r2, [r3]
 417 00d8 5A70     		strb	r2, [r3, #1]
 418 00da 0132     		adds	r2, r2, #1
 419 00dc 9A70     		strb	r2, [r3, #2]
ARM GAS  C:\Users\ADMIN\AppData\Local\Temp\ccJfVV22.s 			page 13


 161:main.c        ****                         break;
 420              		.loc 1 161 0
 421 00de FFF7FEFF 		bl	OpenCloseGates
 422              	.LVL45:
 162:main.c        ****                     case YELLOW:
 423              		.loc 1 162 0
 424 00e2 D2E7     		b	.L22
 425              	.L26:
 164:main.c        ****                         OpenCloseGates();
 426              		.loc 1 164 0
 427 00e4 1B4B     		ldr	r3, .L31+40
 428 00e6 0022     		movs	r2, #0
 429 00e8 1A70     		strb	r2, [r3]
 430 00ea 0121     		movs	r1, #1
 431 00ec 5970     		strb	r1, [r3, #1]
 432 00ee 9A70     		strb	r2, [r3, #2]
 165:main.c        ****                         break;
 433              		.loc 1 165 0
 434 00f0 FFF7FEFF 		bl	OpenCloseGates
 435              	.LVL46:
 166:main.c        ****                     case GREEN:
 436              		.loc 1 166 0
 437 00f4 C9E7     		b	.L22
 438              	.L28:
 168:main.c        ****                         OpenCloseGates();
 439              		.loc 1 168 0
 440 00f6 0322     		movs	r2, #3
 441 00f8 1749     		ldr	r1, .L31+44
 442 00fa 1648     		ldr	r0, .L31+40
 443 00fc FFF7FEFF 		bl	memcpy
 444              	.LVL47:
 169:main.c        ****                         break;
 445              		.loc 1 169 0
 446 0100 FFF7FEFF 		bl	OpenCloseGates
 447              	.LVL48:
 170:main.c        ****                     case BLUE:
 448              		.loc 1 170 0
 449 0104 C1E7     		b	.L22
 450              	.L29:
 172:main.c        ****                         OpenCloseGates();
 451              		.loc 1 172 0
 452 0106 134B     		ldr	r3, .L31+40
 453 0108 0122     		movs	r2, #1
 454 010a 1A70     		strb	r2, [r3]
 455 010c 0022     		movs	r2, #0
 456 010e 5A70     		strb	r2, [r3, #1]
 457 0110 9A70     		strb	r2, [r3, #2]
 173:main.c        ****                         break;
 458              		.loc 1 173 0
 459 0112 FFF7FEFF 		bl	OpenCloseGates
 460              	.LVL49:
 174:main.c        ****                     case BROWN:
 461              		.loc 1 174 0
 462 0116 B8E7     		b	.L22
 463              	.L30:
 176:main.c        ****                         OpenCloseGates();
 464              		.loc 1 176 0
ARM GAS  C:\Users\ADMIN\AppData\Local\Temp\ccJfVV22.s 			page 14


 465 0118 0322     		movs	r2, #3
 466 011a 0F49     		ldr	r1, .L31+44
 467 011c 0431     		adds	r1, r1, #4
 468 011e 0D48     		ldr	r0, .L31+40
 469 0120 FFF7FEFF 		bl	memcpy
 470              	.LVL50:
 177:main.c        ****                         break;
 471              		.loc 1 177 0
 472 0124 FFF7FEFF 		bl	OpenCloseGates
 473              	.LVL51:
 178:main.c        ****                 }
 474              		.loc 1 178 0
 475 0128 AFE7     		b	.L22
 476              	.L32:
 477 012a C046     		.align	2
 478              	.L31:
 479 012c 00000000 		.word	.LC6
 480 0130 00000000 		.word	black_led
 481 0134 00000000 		.word	SW_Handler
 482 0138 00000000 		.word	SW_UpDown_Handler
 483 013c 00000000 		.word	_tcs34725Initialised
 484 0140 00000000 		.word	.LANCHOR0
 485 0144 08000000 		.word	.LC13
 486 0148 00000000 		.word	str
 487 014c 00000000 		.word	state
 488 0150 00000000 		.word	.L25
 489 0154 00000000 		.word	.LANCHOR1
 490 0158 38000000 		.word	.LANCHOR2
 491              		.cfi_endproc
 492              	.LFE35:
 493              		.size	main, .-main
 494              		.section	.text.OpenCloseTestGates,"ax",%progbits
 495              		.align	2
 496              		.global	OpenCloseTestGates
 497              		.code	16
 498              		.thumb_func
 499              		.type	OpenCloseTestGates, %function
 500              	OpenCloseTestGates:
 501              	.LFB38:
 231:main.c        **** 
 232:main.c        **** void OpenCloseTestGates(int count_settings, bool open){
 502              		.loc 1 232 0
 503              		.cfi_startproc
 504              		@ args = 0, pretend = 0, frame = 0
 505              		@ frame_needed = 0, uses_anonymous_args = 0
 506              	.LVL52:
 507 0000 10B5     		push	{r4, lr}
 508              		.cfi_def_cfa_offset 8
 509              		.cfi_offset 4, -8
 510              		.cfi_offset 14, -4
 511 0002 0C00     		movs	r4, r1
 233:main.c        ****     switch (count_settings){
 512              		.loc 1 233 0
 513 0004 0628     		cmp	r0, #6
 514 0006 2AD8     		bhi	.L34
 515 0008 8000     		lsls	r0, r0, #2
 516              	.LVL53:
ARM GAS  C:\Users\ADMIN\AppData\Local\Temp\ccJfVV22.s 			page 15


 517 000a 1A4B     		ldr	r3, .L44
 518 000c 1B58     		ldr	r3, [r3, r0]
 519 000e 9F46     		mov	pc, r3
 520              		.section	.rodata
 521              		.align	2
 522              	.L36:
 523 001c 5E000000 		.word	.L34
 524 0020 10000000 		.word	.L35
 525 0024 2A000000 		.word	.L37
 526 0028 1C000000 		.word	.L38
 527 002c 38000000 		.word	.L39
 528 0030 44000000 		.word	.L40
 529 0034 52000000 		.word	.L41
 530              		.section	.text.OpenCloseTestGates
 531              	.L35:
 234:main.c        ****         case RED:
 235:main.c        ****             gates = (struct motors){0, 0, 0};
 532              		.loc 1 235 0
 533 0010 194B     		ldr	r3, .L44+4
 534 0012 0022     		movs	r2, #0
 535 0014 1A70     		strb	r2, [r3]
 536 0016 5A70     		strb	r2, [r3, #1]
 537 0018 9A70     		strb	r2, [r3, #2]
 236:main.c        ****             break;
 538              		.loc 1 236 0
 539 001a 20E0     		b	.L34
 540              	.L38:
 237:main.c        ****         case ORANGE:
 238:main.c        ****             gates = (struct motors){0, 0, 1};
 541              		.loc 1 238 0
 542 001c 164B     		ldr	r3, .L44+4
 543 001e 0022     		movs	r2, #0
 544 0020 1A70     		strb	r2, [r3]
 545 0022 5A70     		strb	r2, [r3, #1]
 546 0024 0132     		adds	r2, r2, #1
 547 0026 9A70     		strb	r2, [r3, #2]
 239:main.c        ****             break;
 548              		.loc 1 239 0
 549 0028 19E0     		b	.L34
 550              	.L37:
 240:main.c        ****         case YELLOW:
 241:main.c        ****             gates = (struct motors){0, 1, 0};
 551              		.loc 1 241 0
 552 002a 134B     		ldr	r3, .L44+4
 553 002c 0022     		movs	r2, #0
 554 002e 1A70     		strb	r2, [r3]
 555 0030 0121     		movs	r1, #1
 556              	.LVL54:
 557 0032 5970     		strb	r1, [r3, #1]
 558 0034 9A70     		strb	r2, [r3, #2]
 242:main.c        ****             break;
 559              		.loc 1 242 0
 560 0036 12E0     		b	.L34
 561              	.LVL55:
 562              	.L39:
 243:main.c        ****         case GREEN:
 244:main.c        ****             gates = (struct motors){0, 1, 1};
ARM GAS  C:\Users\ADMIN\AppData\Local\Temp\ccJfVV22.s 			page 16


 563              		.loc 1 244 0
 564 0038 0322     		movs	r2, #3
 565 003a 1049     		ldr	r1, .L44+8
 566              	.LVL56:
 567 003c 0E48     		ldr	r0, .L44+4
 568 003e FFF7FEFF 		bl	memcpy
 569              	.LVL57:
 245:main.c        ****             break;
 570              		.loc 1 245 0
 571 0042 0CE0     		b	.L34
 572              	.LVL58:
 573              	.L40:
 246:main.c        ****         case BLUE:
 247:main.c        ****             gates = (struct motors){1, 0, 0};
 574              		.loc 1 247 0
 575 0044 0C4B     		ldr	r3, .L44+4
 576 0046 0122     		movs	r2, #1
 577 0048 1A70     		strb	r2, [r3]
 578 004a 0022     		movs	r2, #0
 579 004c 5A70     		strb	r2, [r3, #1]
 580 004e 9A70     		strb	r2, [r3, #2]
 248:main.c        ****             break;
 581              		.loc 1 248 0
 582 0050 05E0     		b	.L34
 583              	.L41:
 249:main.c        ****         case BROWN:
 250:main.c        ****             gates = (struct motors){1, 0, 1};
 584              		.loc 1 250 0
 585 0052 0322     		movs	r2, #3
 586 0054 0949     		ldr	r1, .L44+8
 587              	.LVL59:
 588 0056 0431     		adds	r1, r1, #4
 589 0058 0748     		ldr	r0, .L44+4
 590 005a FFF7FEFF 		bl	memcpy
 591              	.LVL60:
 592              	.L34:
 251:main.c        ****             break;
 252:main.c        ****     }
 253:main.c        ****     if (open){
 593              		.loc 1 253 0
 594 005e 002C     		cmp	r4, #0
 595 0060 03D0     		beq	.L42
 254:main.c        ****         RunMotors45Degrees(CCW);
 596              		.loc 1 254 0
 597 0062 0120     		movs	r0, #1
 598 0064 FFF7FEFF 		bl	RunMotors45Degrees
 599              	.LVL61:
 600 0068 02E0     		b	.L33
 601              	.L42:
 255:main.c        ****     } else{
 256:main.c        ****         RunMotors45Degrees(CW);
 602              		.loc 1 256 0
 603 006a 0020     		movs	r0, #0
 604 006c FFF7FEFF 		bl	RunMotors45Degrees
 605              	.LVL62:
 606              	.L33:
 257:main.c        ****     }
ARM GAS  C:\Users\ADMIN\AppData\Local\Temp\ccJfVV22.s 			page 17


 258:main.c        ****     
 259:main.c        **** }
 607              		.loc 1 259 0
 608              		@ sp needed
 609 0070 10BD     		pop	{r4, pc}
 610              	.L45:
 611 0072 C046     		.align	2
 612              	.L44:
 613 0074 1C000000 		.word	.L36
 614 0078 00000000 		.word	.LANCHOR1
 615 007c 38000000 		.word	.LANCHOR2
 616              		.cfi_endproc
 617              	.LFE38:
 618              		.size	OpenCloseTestGates, .-OpenCloseTestGates
 619              		.global	joystick
 620              		.global	count_settings
 621              		.global	my_test
 622              		.global	previous_state
 623              		.global	current_measure
 624              		.global	gates
 625              		.comm	boundaries,144,4
 626              		.comm	max_cur_color,12,4
 627              		.comm	min_cur_color,12,4
 628              		.comm	max_none_color,12,4
 629              		.comm	min_none_color,12,4
 630              		.comm	button_pushed,1,1
 631              		.section	.rodata
 632              		.align	2
 633              		.set	.LANCHOR2,. + 0
 634              	.LC0:
 635 0038 00       		.byte	0
 636 0039 01       		.byte	1
 637 003a 01       		.byte	1
 638 003b 00       		.space	1
 639              	.LC1:
 640 003c 01       		.byte	1
 641 003d 00       		.byte	0
 642 003e 01       		.byte	1
 643              		.data
 644              		.align	2
 645              		.set	.LANCHOR1,. + 0
 646              		.type	gates, %object
 647              		.size	gates, 3
 648              	gates:
 649 0000 01       		.byte	1
 650 0001 01       		.byte	1
 651 0002 01       		.byte	1
 652              		.type	previous_state, %object
 653              		.size	previous_state, 1
 654              	previous_state:
 655 0003 07       		.byte	7
 656              		.type	current_measure, %object
 657              		.size	current_measure, 5
 658              	current_measure:
 659 0004 07       		.byte	7
 660 0005 07       		.byte	7
 661 0006 07       		.byte	7
ARM GAS  C:\Users\ADMIN\AppData\Local\Temp\ccJfVV22.s 			page 18


 662 0007 07       		.byte	7
 663 0008 07       		.byte	7
 664              		.section	.rodata.str1.4,"aMS",%progbits,1
 665              		.align	2
 666              	.LC6:
 667 0000 53544152 		.ascii	"START\000"
 667      5400
 668 0006 0000     		.space	2
 669              	.LC13:
 670 0008 6A6F7973 		.ascii	"joystick %d   \012\000"
 670      7469636B 
 670      20256420 
 670      20200A00 
 671              		.bss
 672              		.align	2
 673              		.set	.LANCHOR0,. + 0
 674              		.type	count_settings, %object
 675              		.size	count_settings, 4
 676              	count_settings:
 677 0000 00000000 		.space	4
 678              		.type	my_test, %object
 679              		.size	my_test, 4
 680              	my_test:
 681 0004 00000000 		.space	4
 682              		.type	joystick, %object
 683              		.size	joystick, 4
 684              	joystick:
 685 0008 00000000 		.space	4
 686              		.text
 687              	.Letext0:
 688              		.file 2 "c:\\program files (x86)\\cypress\\psoc creator\\4.4\\psoc creator\\import\\gnu\\arm\\5.4.
 689              		.file 3 "c:\\program files (x86)\\cypress\\psoc creator\\4.4\\psoc creator\\import\\gnu\\arm\\5.4.
 690              		.file 4 "c:\\program files (x86)\\cypress\\psoc creator\\4.4\\psoc creator\\import\\gnu\\arm\\5.4.
 691              		.file 5 "tcs34725.h"
 692              		.file 6 "learn_color.h"
 693              		.file 7 "Generated_Source\\PSoC4/SW.h"
 694              		.file 8 "Generated_Source\\PSoC4/ADC.h"
 695              		.file 9 "Generated_Source\\PSoC4/SW_UpDown.h"
 696              		.file 10 "Generated_Source\\PSoC4/Dir_1.h"
 697              		.file 11 "Generated_Source\\PSoC4/Dir_2_5.h"
 698              		.file 12 "Generated_Source\\PSoC4/Dir_3_4.h"
 699              		.file 13 "Generated_Source\\PSoC4/Control_Reg_2.h"
 700              		.file 14 "Generated_Source\\PSoC4/Control_Reg_1.h"
 701              		.file 15 "Generated_Source\\PSoC4/Status_Reg_1.h"
 702              		.file 16 "Generated_Source\\PSoC4/CyLib.h"
 703              		.file 17 "Generated_Source\\PSoC4/PWM_Container.h"
 704              		.file 18 "utils.h"
 705              		.file 19 "Generated_Source\\PSoC4/I2C.h"
 706              		.file 20 "Generated_Source\\PSoC4/UART.h"
 707              		.file 21 "Generated_Source\\PSoC4/Clock.h"
 708              		.file 22 "Generated_Source\\PSoC4/PWM_RED.h"
 709              		.file 23 "Generated_Source\\PSoC4/PWM_GREEN.h"
 710              		.file 24 "Generated_Source\\PSoC4/PWM_BLUE.h"
 711              		.file 25 "Generated_Source\\PSoC4/isr_SW.h"
 712              		.file 26 "Generated_Source\\PSoC4/isr_SW_UpDown.h"
 713              		.file 27 "c:\\program files (x86)\\cypress\\psoc creator\\4.4\\psoc creator\\import\\gnu\\arm\\5.4