ARM GAS  C:\Users\ADMIN\AppData\Local\Temp\ccef7Aml.s 			page 1


   1              		.syntax unified
   2              		.cpu cortex-m0
   3              		.fpu softvfp
   4              		.eabi_attribute 20, 1
   5              		.eabi_attribute 21, 1
   6              		.eabi_attribute 23, 3
   7              		.eabi_attribute 24, 1
   8              		.eabi_attribute 25, 1
   9              		.eabi_attribute 26, 1
  10              		.eabi_attribute 30, 1
  11              		.eabi_attribute 34, 0
  12              		.eabi_attribute 18, 4
  13              		.thumb
  14              		.syntax unified
  15              		.file	"tcs34725.c"
  16              		.text
  17              	.Ltext0:
  18              		.cfi_sections	.debug_frame
  19              		.section	.text.write8,"ax",%progbits
  20              		.align	2
  21              		.global	write8
  22              		.code	16
  23              		.thumb_func
  24              		.type	write8, %function
  25              	write8:
  26              	.LFB33:
  27              		.file 1 "tcs34725.c"
   1:tcs34725.c    **** //for using sprintf
   2:tcs34725.c    **** #include <stdio.h>
   3:tcs34725.c    **** //for using abs
   4:tcs34725.c    **** #include <stdlib.h>
   5:tcs34725.c    **** #include <stdbool.h>
   6:tcs34725.c    **** 
   7:tcs34725.c    **** #include "project.h"
   8:tcs34725.c    **** //for printing in serial
   9:tcs34725.c    **** #include "utils.h"
  10:tcs34725.c    **** 
  11:tcs34725.c    **** #include "tcs34725.h"
  12:tcs34725.c    **** #include "learn_color.h"
  13:tcs34725.c    **** #include "main.h"
  14:tcs34725.c    **** 
  15:tcs34725.c    **** 
  16:tcs34725.c    **** struct RGB red_struct = {108, 73, 61};
  17:tcs34725.c    **** //struct RGB red_struct = {98, 75, 70};
  18:tcs34725.c    **** struct RGB green_struct = {80, 89, 68};
  19:tcs34725.c    **** //struct RGB green_struct = {63, 103, 66};
  20:tcs34725.c    **** struct RGB blue_struct = {51, 91, 102};
  21:tcs34725.c    **** //struct RGB blue_struct = {47, 87, 103};
  22:tcs34725.c    **** struct RGB yellow_struct = {111, 78, 50};
  23:tcs34725.c    **** //struct RGB yellow_struct = {94, 94, 50};
  24:tcs34725.c    **** struct RGB orange_struct = {123, 61, 55};
  25:tcs34725.c    **** //struct RGB orange_struct = {106, 78, 53};
  26:tcs34725.c    **** struct RGB brown_struct = {97, 67, 73};
  27:tcs34725.c    **** //struct RGB brown_struct = {73, 80, 68};
  28:tcs34725.c    **** 
  29:tcs34725.c    **** /*
  30:tcs34725.c    **** int red_struct_min[] = {100, 73, 62};
ARM GAS  C:\Users\ADMIN\AppData\Local\Temp\ccef7Aml.s 			page 2


  31:tcs34725.c    **** int red_struct_max[] = {106, 79, 68};
  32:tcs34725.c    **** 
  33:tcs34725.c    **** int green_struct_min[] = {63, 101, 65};
  34:tcs34725.c    **** int green_struct_max[] = {69, 107, 71};
  35:tcs34725.c    **** 
  36:tcs34725.c    **** int blue_struct_min[] = {48, 85, 100};
  37:tcs34725.c    **** int blue_struct_max[] = {54, 91, 106};
  38:tcs34725.c    **** 
  39:tcs34725.c    **** int yellow_struct_min[] = {91, 91, 48};
  40:tcs34725.c    **** int yellow_struct_max[] = {97, 97, 54};
  41:tcs34725.c    **** 
  42:tcs34725.c    **** 
  43:tcs34725.c    **** int orange_struct_min[] = {105, 74, 52};
  44:tcs34725.c    **** int orange_struct_max[] = {111, 80, 58};
  45:tcs34725.c    **** 
  46:tcs34725.c    **** int brown_struct_min[] = {77, 85, 68};
  47:tcs34725.c    **** int brown_struct_max[] = {83, 91, 74};
  48:tcs34725.c    **** */
  49:tcs34725.c    **** 
  50:tcs34725.c    **** int red_struct_min[] = {255, 255, 255};
  51:tcs34725.c    **** int red_struct_max[] = {0, 0, 0};
  52:tcs34725.c    **** 
  53:tcs34725.c    **** int green_struct_min[] = {255, 255, 255};
  54:tcs34725.c    **** int green_struct_max[] = {0, 0, 0};
  55:tcs34725.c    **** 
  56:tcs34725.c    **** int blue_struct_min[] = {255, 255, 255};
  57:tcs34725.c    **** int blue_struct_max[] = {0, 0, 0};
  58:tcs34725.c    **** 
  59:tcs34725.c    **** int yellow_struct_min[] = {255, 255, 255};
  60:tcs34725.c    **** int yellow_struct_max[] = {0, 0, 0};
  61:tcs34725.c    **** 
  62:tcs34725.c    **** 
  63:tcs34725.c    **** int orange_struct_min[] = {255, 255, 255};
  64:tcs34725.c    **** int orange_struct_max[] = {0, 0, 0};
  65:tcs34725.c    **** 
  66:tcs34725.c    **** int brown_struct_min[] = {255, 255, 255};
  67:tcs34725.c    **** int brown_struct_max[] = {0, 0, 0};
  68:tcs34725.c    **** 
  69:tcs34725.c    **** /*
  70:tcs34725.c    **** int red_struct_min[] = {112, 65, 54};
  71:tcs34725.c    **** int red_struct_max[] = {122, 73, 62};
  72:tcs34725.c    **** 
  73:tcs34725.c    **** int green_struct_min[] = {54, 110, 60};
  74:tcs34725.c    **** int green_struct_max[] = {60, 117, 67};
  75:tcs34725.c    **** 
  76:tcs34725.c    **** int blue_struct_min[] = {36, 83, 111};
  77:tcs34725.c    **** int blue_struct_max[] = {45, 97, 133};
  78:tcs34725.c    **** 
  79:tcs34725.c    **** int yellow_struct_min[] = {94, 91, 37};
  80:tcs34725.c    **** int yellow_struct_max[] = {101, 96, 45};
  81:tcs34725.c    **** 
  82:tcs34725.c    **** 
  83:tcs34725.c    **** int orange_struct_min[] = {112, 69, 43};
  84:tcs34725.c    **** int orange_struct_max[] = {121, 75, 51};
  85:tcs34725.c    **** 
  86:tcs34725.c    **** int brown_struct_min[] = {73, 80, 64};
  87:tcs34725.c    **** int brown_struct_max[] = {84, 88, 78};
ARM GAS  C:\Users\ADMIN\AppData\Local\Temp\ccef7Aml.s 			page 3


  88:tcs34725.c    **** */
  89:tcs34725.c    **** struct RGB red_led = {255, 0, 0};
  90:tcs34725.c    **** struct RGB green_led = {0, 255, 0};
  91:tcs34725.c    **** struct RGB blue_led = {0, 0, 255};
  92:tcs34725.c    **** struct RGB yellow_led = {255, 130, 3};
  93:tcs34725.c    **** struct RGB orange_led = {255, 126, 0};
  94:tcs34725.c    **** struct RGB brown_led = {117, 76, 0};
  95:tcs34725.c    **** struct RGB black_led = {0, 0, 0};
  96:tcs34725.c    **** 
  97:tcs34725.c    **** uint8_t _tcs34725Initialised = false;
  98:tcs34725.c    **** uint8_t _tcs34725Gain;
  99:tcs34725.c    **** uint8_t _tcs34725IntegrationTime;
 100:tcs34725.c    **** 
 101:tcs34725.c    **** uint32 status;
 102:tcs34725.c    **** 
 103:tcs34725.c    **** bool state = NONE;
 104:tcs34725.c    **** 
 105:tcs34725.c    **** 
 106:tcs34725.c    **** //write 8-bit value to reg
 107:tcs34725.c    **** void write8(uint8_t reg, uint32_t value)
 108:tcs34725.c    **** {   
  28              		.loc 1 108 0
  29              		.cfi_startproc
  30              		@ args = 0, pretend = 0, frame = 0
  31              		@ frame_needed = 0, uses_anonymous_args = 0
  32              	.LVL0:
  33 0000 70B5     		push	{r4, r5, r6, lr}
  34              		.cfi_def_cfa_offset 16
  35              		.cfi_offset 4, -16
  36              		.cfi_offset 5, -12
  37              		.cfi_offset 6, -8
  38              		.cfi_offset 14, -4
  39 0002 0400     		movs	r4, r0
  40 0004 0D00     		movs	r5, r1
 109:tcs34725.c    **** 	I2C_I2CMasterSendStart(TCS34725_ADDRESS, I2C_I2C_WRITE_XFER_MODE, timeoutMs);
  41              		.loc 1 109 0
  42 0006 6422     		movs	r2, #100
  43 0008 0021     		movs	r1, #0
  44              	.LVL1:
  45 000a 2920     		movs	r0, #41
  46              	.LVL2:
  47 000c FFF7FEFF 		bl	I2C_I2CMasterSendStart
  48              	.LVL3:
 110:tcs34725.c    ****     
 111:tcs34725.c    **** 	status = I2C_I2CMasterWriteByte(TCS34725_COMMAND_BIT | reg, timeoutMs);
  49              		.loc 1 111 0
  50 0010 8020     		movs	r0, #128
  51 0012 4042     		rsbs	r0, r0, #0
  52 0014 0443     		orrs	r4, r0
  53 0016 E0B2     		uxtb	r0, r4
  54 0018 6421     		movs	r1, #100
  55 001a FFF7FEFF 		bl	I2C_I2CMasterWriteByte
  56              	.LVL4:
  57 001e 0B4B     		ldr	r3, .L4
  58 0020 1860     		str	r0, [r3]
 112:tcs34725.c    ****     if (status != I2C_I2C_MSTR_NO_ERROR){
  59              		.loc 1 112 0
ARM GAS  C:\Users\ADMIN\AppData\Local\Temp\ccef7Aml.s 			page 4


  60 0022 0028     		cmp	r0, #0
  61 0024 02D0     		beq	.L2
 113:tcs34725.c    ****         print("ERROR_WRITE8");
  62              		.loc 1 113 0
  63 0026 0A48     		ldr	r0, .L4+4
  64 0028 FFF7FEFF 		bl	print
  65              	.LVL5:
  66              	.L2:
 114:tcs34725.c    ****     }
 115:tcs34725.c    ****     
 116:tcs34725.c    ****     status = I2C_I2CMasterWriteByte(value & 0xFF, timeoutMs);
  67              		.loc 1 116 0
  68 002c FF20     		movs	r0, #255
  69 002e 2840     		ands	r0, r5
  70 0030 6421     		movs	r1, #100
  71 0032 FFF7FEFF 		bl	I2C_I2CMasterWriteByte
  72              	.LVL6:
  73 0036 054B     		ldr	r3, .L4
  74 0038 1860     		str	r0, [r3]
 117:tcs34725.c    ****     if (status != I2C_I2C_MSTR_NO_ERROR){
  75              		.loc 1 117 0
  76 003a 0028     		cmp	r0, #0
  77 003c 02D0     		beq	.L3
 118:tcs34725.c    ****         print("ERROR_WRITE8");
  78              		.loc 1 118 0
  79 003e 0448     		ldr	r0, .L4+4
  80 0040 FFF7FEFF 		bl	print
  81              	.LVL7:
  82              	.L3:
 119:tcs34725.c    ****     }
 120:tcs34725.c    ****     
 121:tcs34725.c    ****     I2C_I2CMasterSendStop(stopTime);
  83              		.loc 1 121 0
  84 0044 3220     		movs	r0, #50
  85 0046 FFF7FEFF 		bl	I2C_I2CMasterSendStop
  86              	.LVL8:
 122:tcs34725.c    **** }
  87              		.loc 1 122 0
  88              		@ sp needed
  89              	.LVL9:
  90 004a 70BD     		pop	{r4, r5, r6, pc}
  91              	.L5:
  92              		.align	2
  93              	.L4:
  94 004c 00000000 		.word	status
  95 0050 00000000 		.word	.LC1
  96              		.cfi_endproc
  97              	.LFE33:
  98              		.size	write8, .-write8
  99              		.section	.text.read8,"ax",%progbits
 100              		.align	2
 101              		.global	read8
 102              		.code	16
 103              		.thumb_func
 104              		.type	read8, %function
 105              	read8:
 106              	.LFB34:
ARM GAS  C:\Users\ADMIN\AppData\Local\Temp\ccef7Aml.s 			page 5


 123:tcs34725.c    **** 
 124:tcs34725.c    **** //read and return 8-bit value from reg
 125:tcs34725.c    **** uint8_t read8(uint8_t reg)
 126:tcs34725.c    **** {   
 107              		.loc 1 126 0
 108              		.cfi_startproc
 109              		@ args = 0, pretend = 0, frame = 8
 110              		@ frame_needed = 0, uses_anonymous_args = 0
 111              	.LVL10:
 112 0000 10B5     		push	{r4, lr}
 113              		.cfi_def_cfa_offset 8
 114              		.cfi_offset 4, -8
 115              		.cfi_offset 14, -4
 116 0002 82B0     		sub	sp, sp, #8
 117              		.cfi_def_cfa_offset 16
 118 0004 0400     		movs	r4, r0
 127:tcs34725.c    ****     uint8_t current;
 128:tcs34725.c    **** 	I2C_I2CMasterSendStart(TCS34725_ADDRESS, I2C_I2C_WRITE_XFER_MODE, timeoutMs);
 119              		.loc 1 128 0
 120 0006 6422     		movs	r2, #100
 121 0008 0021     		movs	r1, #0
 122 000a 2920     		movs	r0, #41
 123              	.LVL11:
 124 000c FFF7FEFF 		bl	I2C_I2CMasterSendStart
 125              	.LVL12:
 129:tcs34725.c    **** 	status = I2C_I2CMasterWriteByte(TCS34725_COMMAND_BIT | reg, timeoutMs);
 126              		.loc 1 129 0
 127 0010 8020     		movs	r0, #128
 128 0012 4042     		rsbs	r0, r0, #0
 129 0014 0443     		orrs	r4, r0
 130 0016 E0B2     		uxtb	r0, r4
 131 0018 6421     		movs	r1, #100
 132 001a FFF7FEFF 		bl	I2C_I2CMasterWriteByte
 133              	.LVL13:
 134 001e 114B     		ldr	r3, .L9
 135 0020 1860     		str	r0, [r3]
 130:tcs34725.c    ****     if (status != I2C_I2C_MSTR_NO_ERROR){
 136              		.loc 1 130 0
 137 0022 0028     		cmp	r0, #0
 138 0024 02D0     		beq	.L7
 131:tcs34725.c    ****         print("ERROR_READ8");
 139              		.loc 1 131 0
 140 0026 1048     		ldr	r0, .L9+4
 141 0028 FFF7FEFF 		bl	print
 142              	.LVL14:
 143              	.L7:
 132:tcs34725.c    ****     }
 133:tcs34725.c    ****     I2C_I2CMasterSendStop(stopTime);
 144              		.loc 1 133 0
 145 002c 3220     		movs	r0, #50
 146 002e FFF7FEFF 		bl	I2C_I2CMasterSendStop
 147              	.LVL15:
 134:tcs34725.c    **** 
 135:tcs34725.c    ****     I2C_I2CMasterSendStart(TCS34725_ADDRESS, I2C_I2C_READ_XFER_MODE, timeoutMs);
 148              		.loc 1 135 0
 149 0032 6422     		movs	r2, #100
 150 0034 0121     		movs	r1, #1
ARM GAS  C:\Users\ADMIN\AppData\Local\Temp\ccef7Aml.s 			page 6


 151 0036 2920     		movs	r0, #41
 152 0038 FFF7FEFF 		bl	I2C_I2CMasterSendStart
 153              	.LVL16:
 136:tcs34725.c    ****     status = I2C_I2CMasterReadByte(I2C_I2C_ACK_DATA, &current, timeoutMs);
 154              		.loc 1 136 0
 155 003c 6422     		movs	r2, #100
 156 003e 6B46     		mov	r3, sp
 157 0040 D91D     		adds	r1, r3, #7
 158 0042 0020     		movs	r0, #0
 159 0044 FFF7FEFF 		bl	I2C_I2CMasterReadByte
 160              	.LVL17:
 161 0048 064B     		ldr	r3, .L9
 162 004a 1860     		str	r0, [r3]
 137:tcs34725.c    ****     if (status != I2C_I2C_MSTR_NO_ERROR){
 163              		.loc 1 137 0
 164 004c 0028     		cmp	r0, #0
 165 004e 02D0     		beq	.L8
 138:tcs34725.c    ****         print("ERROR_READ8");
 166              		.loc 1 138 0
 167 0050 0548     		ldr	r0, .L9+4
 168 0052 FFF7FEFF 		bl	print
 169              	.LVL18:
 170              	.L8:
 139:tcs34725.c    ****     }
 140:tcs34725.c    ****     I2C_I2CMasterSendStop(stopTime);
 171              		.loc 1 140 0
 172 0056 3220     		movs	r0, #50
 173 0058 FFF7FEFF 		bl	I2C_I2CMasterSendStop
 174              	.LVL19:
 141:tcs34725.c    ****     
 142:tcs34725.c    ****     return current;
 175              		.loc 1 142 0
 176 005c 6B46     		mov	r3, sp
 177 005e D879     		ldrb	r0, [r3, #7]
 143:tcs34725.c    **** }
 178              		.loc 1 143 0
 179 0060 02B0     		add	sp, sp, #8
 180              		@ sp needed
 181 0062 10BD     		pop	{r4, pc}
 182              	.L10:
 183              		.align	2
 184              	.L9:
 185 0064 00000000 		.word	status
 186 0068 10000000 		.word	.LC4
 187              		.cfi_endproc
 188              	.LFE34:
 189              		.size	read8, .-read8
 190              		.section	.text.read16,"ax",%progbits
 191              		.align	2
 192              		.global	read16
 193              		.code	16
 194              		.thumb_func
 195              		.type	read16, %function
 196              	read16:
 197              	.LFB35:
 144:tcs34725.c    **** 
 145:tcs34725.c    **** 
ARM GAS  C:\Users\ADMIN\AppData\Local\Temp\ccef7Aml.s 			page 7


 146:tcs34725.c    **** //read and return 16-bit value from reg
 147:tcs34725.c    **** uint16_t read16(uint8_t reg)
 148:tcs34725.c    **** {   
 198              		.loc 1 148 0
 199              		.cfi_startproc
 200              		@ args = 0, pretend = 0, frame = 8
 201              		@ frame_needed = 0, uses_anonymous_args = 0
 202              	.LVL20:
 203 0000 10B5     		push	{r4, lr}
 204              		.cfi_def_cfa_offset 8
 205              		.cfi_offset 4, -8
 206              		.cfi_offset 14, -4
 207 0002 82B0     		sub	sp, sp, #8
 208              		.cfi_def_cfa_offset 16
 209 0004 0400     		movs	r4, r0
 149:tcs34725.c    ****     uint8_t low, high;
 150:tcs34725.c    **** 	I2C_I2CMasterSendStart(TCS34725_ADDRESS, I2C_I2C_WRITE_XFER_MODE, timeoutMs);
 210              		.loc 1 150 0
 211 0006 6422     		movs	r2, #100
 212 0008 0021     		movs	r1, #0
 213 000a 2920     		movs	r0, #41
 214              	.LVL21:
 215 000c FFF7FEFF 		bl	I2C_I2CMasterSendStart
 216              	.LVL22:
 151:tcs34725.c    **** 	I2C_I2CMasterWriteByte(TCS34725_COMMAND_BIT | reg, timeoutMs);
 217              		.loc 1 151 0
 218 0010 8020     		movs	r0, #128
 219 0012 4042     		rsbs	r0, r0, #0
 220 0014 0443     		orrs	r4, r0
 221 0016 E0B2     		uxtb	r0, r4
 222 0018 6421     		movs	r1, #100
 223 001a FFF7FEFF 		bl	I2C_I2CMasterWriteByte
 224              	.LVL23:
 152:tcs34725.c    ****     I2C_I2CMasterSendStop(stopTime);
 225              		.loc 1 152 0
 226 001e 3220     		movs	r0, #50
 227 0020 FFF7FEFF 		bl	I2C_I2CMasterSendStop
 228              	.LVL24:
 153:tcs34725.c    **** 
 154:tcs34725.c    ****     I2C_I2CMasterSendStart(TCS34725_ADDRESS, I2C_I2C_READ_XFER_MODE, timeoutMs);
 229              		.loc 1 154 0
 230 0024 6422     		movs	r2, #100
 231 0026 0121     		movs	r1, #1
 232 0028 2920     		movs	r0, #41
 233 002a FFF7FEFF 		bl	I2C_I2CMasterSendStart
 234              	.LVL25:
 155:tcs34725.c    ****     
 156:tcs34725.c    ****     status = I2C_I2CMasterReadByte(I2C_I2C_ACK_DATA, &low, timeoutMs);
 235              		.loc 1 156 0
 236 002e 6422     		movs	r2, #100
 237 0030 6B46     		mov	r3, sp
 238 0032 D91D     		adds	r1, r3, #7
 239 0034 0020     		movs	r0, #0
 240 0036 FFF7FEFF 		bl	I2C_I2CMasterReadByte
 241              	.LVL26:
 242 003a 104B     		ldr	r3, .L14
 243 003c 1860     		str	r0, [r3]
ARM GAS  C:\Users\ADMIN\AppData\Local\Temp\ccef7Aml.s 			page 8


 157:tcs34725.c    ****     if (status != I2C_I2C_MSTR_NO_ERROR){
 244              		.loc 1 157 0
 245 003e 0028     		cmp	r0, #0
 246 0040 02D0     		beq	.L12
 158:tcs34725.c    ****         print("ERROR_READ16");
 247              		.loc 1 158 0
 248 0042 0F48     		ldr	r0, .L14+4
 249 0044 FFF7FEFF 		bl	print
 250              	.LVL27:
 251              	.L12:
 159:tcs34725.c    ****     }
 160:tcs34725.c    ****     
 161:tcs34725.c    ****     status = I2C_I2CMasterReadByte(I2C_I2C_NAK_DATA, &high, timeoutMs);
 252              		.loc 1 161 0
 253 0048 6422     		movs	r2, #100
 254 004a 6B46     		mov	r3, sp
 255 004c 991D     		adds	r1, r3, #6
 256 004e 0120     		movs	r0, #1
 257 0050 FFF7FEFF 		bl	I2C_I2CMasterReadByte
 258              	.LVL28:
 259 0054 094B     		ldr	r3, .L14
 260 0056 1860     		str	r0, [r3]
 162:tcs34725.c    ****     if (status != I2C_I2C_MSTR_NO_ERROR){
 261              		.loc 1 162 0
 262 0058 0028     		cmp	r0, #0
 263 005a 02D0     		beq	.L13
 163:tcs34725.c    ****         print("ERROR_READ16");
 264              		.loc 1 163 0
 265 005c 0848     		ldr	r0, .L14+4
 266 005e FFF7FEFF 		bl	print
 267              	.LVL29:
 268              	.L13:
 164:tcs34725.c    ****     }
 165:tcs34725.c    ****     
 166:tcs34725.c    ****     I2C_I2CMasterSendStop(stopTime);
 269              		.loc 1 166 0
 270 0062 3220     		movs	r0, #50
 271 0064 FFF7FEFF 		bl	I2C_I2CMasterSendStop
 272              	.LVL30:
 167:tcs34725.c    ****     
 168:tcs34725.c    ****     uint16_t x = high;
 273              		.loc 1 168 0
 274 0068 6B46     		mov	r3, sp
 275 006a 9879     		ldrb	r0, [r3, #6]
 276              	.LVL31:
 169:tcs34725.c    ****     uint16_t t = low;
 277              		.loc 1 169 0
 278 006c 6B46     		mov	r3, sp
 279 006e 0733     		adds	r3, r3, #7
 280 0070 1B78     		ldrb	r3, [r3]
 281              	.LVL32:
 170:tcs34725.c    ****     
 171:tcs34725.c    ****     x <<= 8;
 282              		.loc 1 171 0
 283 0072 0002     		lsls	r0, r0, #8
 284              	.LVL33:
 172:tcs34725.c    ****     x |= t;
ARM GAS  C:\Users\ADMIN\AppData\Local\Temp\ccef7Aml.s 			page 9


 285              		.loc 1 172 0
 286 0074 1843     		orrs	r0, r3
 287              	.LVL34:
 173:tcs34725.c    **** 
 174:tcs34725.c    ****     return x;
 175:tcs34725.c    **** }
 288              		.loc 1 175 0
 289 0076 02B0     		add	sp, sp, #8
 290              		@ sp needed
 291 0078 10BD     		pop	{r4, pc}
 292              	.L15:
 293 007a C046     		.align	2
 294              	.L14:
 295 007c 00000000 		.word	status
 296 0080 1C000000 		.word	.LC7
 297              		.cfi_endproc
 298              	.LFE35:
 299              		.size	read16, .-read16
 300              		.global	__aeabi_idiv
 301              		.section	.text.enable,"ax",%progbits
 302              		.align	2
 303              		.global	enable
 304              		.code	16
 305              		.thumb_func
 306              		.type	enable, %function
 307              	enable:
 308              	.LFB36:
 176:tcs34725.c    **** 
 177:tcs34725.c    **** 
 178:tcs34725.c    **** void enable(){
 309              		.loc 1 178 0
 310              		.cfi_startproc
 311              		@ args = 0, pretend = 0, frame = 0
 312              		@ frame_needed = 0, uses_anonymous_args = 0
 313 0000 10B5     		push	{r4, lr}
 314              		.cfi_def_cfa_offset 8
 315              		.cfi_offset 4, -8
 316              		.cfi_offset 14, -4
 179:tcs34725.c    ****   write8(TCS34725_ENABLE, TCS34725_ENABLE_PON);
 317              		.loc 1 179 0
 318 0002 0121     		movs	r1, #1
 319 0004 0020     		movs	r0, #0
 320 0006 FFF7FEFF 		bl	write8
 321              	.LVL35:
 180:tcs34725.c    ****   CyDelay(3);
 322              		.loc 1 180 0
 323 000a 0320     		movs	r0, #3
 324 000c FFF7FEFF 		bl	CyDelay
 325              	.LVL36:
 181:tcs34725.c    ****   write8(TCS34725_ENABLE, TCS34725_ENABLE_PON | TCS34725_ENABLE_AEN);
 326              		.loc 1 181 0
 327 0010 0321     		movs	r1, #3
 328 0012 0020     		movs	r0, #0
 329 0014 FFF7FEFF 		bl	write8
 330              	.LVL37:
 182:tcs34725.c    ****   CyDelay((256 - _tcs34725IntegrationTime) * 12 / 5 + 1);
 331              		.loc 1 182 0
ARM GAS  C:\Users\ADMIN\AppData\Local\Temp\ccef7Aml.s 			page 10


 332 0018 074B     		ldr	r3, .L17
 333 001a 1A78     		ldrb	r2, [r3]
 334 001c 8023     		movs	r3, #128
 335 001e 5B00     		lsls	r3, r3, #1
 336 0020 9B1A     		subs	r3, r3, r2
 337 0022 5A00     		lsls	r2, r3, #1
 338 0024 D318     		adds	r3, r2, r3
 339 0026 9800     		lsls	r0, r3, #2
 340 0028 0521     		movs	r1, #5
 341 002a FFF7FEFF 		bl	__aeabi_idiv
 342              	.LVL38:
 343 002e 0130     		adds	r0, r0, #1
 344 0030 FFF7FEFF 		bl	CyDelay
 345              	.LVL39:
 183:tcs34725.c    **** }
 346              		.loc 1 183 0
 347              		@ sp needed
 348 0034 10BD     		pop	{r4, pc}
 349              	.L18:
 350 0036 C046     		.align	2
 351              	.L17:
 352 0038 00000000 		.word	_tcs34725IntegrationTime
 353              		.cfi_endproc
 354              	.LFE36:
 355              		.size	enable, .-enable
 356              		.section	.text.disable,"ax",%progbits
 357              		.align	2
 358              		.global	disable
 359              		.code	16
 360              		.thumb_func
 361              		.type	disable, %function
 362              	disable:
 363              	.LFB37:
 184:tcs34725.c    **** 
 185:tcs34725.c    **** void disable(){
 364              		.loc 1 185 0
 365              		.cfi_startproc
 366              		@ args = 0, pretend = 0, frame = 0
 367              		@ frame_needed = 0, uses_anonymous_args = 0
 368 0000 10B5     		push	{r4, lr}
 369              		.cfi_def_cfa_offset 8
 370              		.cfi_offset 4, -8
 371              		.cfi_offset 14, -4
 372              	.LVL40:
 186:tcs34725.c    ****   uint8_t reg = 0;
 187:tcs34725.c    ****   reg = read8(TCS34725_ENABLE);
 373              		.loc 1 187 0
 374 0002 0020     		movs	r0, #0
 375 0004 FFF7FEFF 		bl	read8
 376              	.LVL41:
 188:tcs34725.c    ****   write8(TCS34725_ENABLE, reg & ~(TCS34725_ENABLE_PON | TCS34725_ENABLE_AEN));
 377              		.loc 1 188 0
 378 0008 0323     		movs	r3, #3
 379 000a 0100     		movs	r1, r0
 380 000c 9943     		bics	r1, r3
 381 000e 0020     		movs	r0, #0
 382              	.LVL42:
ARM GAS  C:\Users\ADMIN\AppData\Local\Temp\ccef7Aml.s 			page 11


 383 0010 FFF7FEFF 		bl	write8
 384              	.LVL43:
 189:tcs34725.c    **** }
 385              		.loc 1 189 0
 386              		@ sp needed
 387 0014 10BD     		pop	{r4, pc}
 388              		.cfi_endproc
 389              	.LFE37:
 390              		.size	disable, .-disable
 391 0016 C046     		.section	.text.setIntegrationTime,"ax",%progbits
 392              		.align	2
 393              		.global	setIntegrationTime
 394              		.code	16
 395              		.thumb_func
 396              		.type	setIntegrationTime, %function
 397              	setIntegrationTime:
 398              	.LFB38:
 190:tcs34725.c    **** 
 191:tcs34725.c    **** void setIntegrationTime(uint8_t it) {
 399              		.loc 1 191 0
 400              		.cfi_startproc
 401              		@ args = 0, pretend = 0, frame = 0
 402              		@ frame_needed = 0, uses_anonymous_args = 0
 403              	.LVL44:
 404 0000 10B5     		push	{r4, lr}
 405              		.cfi_def_cfa_offset 8
 406              		.cfi_offset 4, -8
 407              		.cfi_offset 14, -4
 408 0002 0400     		movs	r4, r0
 192:tcs34725.c    **** 
 193:tcs34725.c    ****   write8(TCS34725_ATIME, it);
 409              		.loc 1 193 0
 410 0004 0100     		movs	r1, r0
 411 0006 0120     		movs	r0, #1
 412              	.LVL45:
 413 0008 FFF7FEFF 		bl	write8
 414              	.LVL46:
 194:tcs34725.c    **** 
 195:tcs34725.c    ****   _tcs34725IntegrationTime = it;
 415              		.loc 1 195 0
 416 000c 014B     		ldr	r3, .L21
 417 000e 1C70     		strb	r4, [r3]
 196:tcs34725.c    **** }
 418              		.loc 1 196 0
 419              		@ sp needed
 420 0010 10BD     		pop	{r4, pc}
 421              	.L22:
 422 0012 C046     		.align	2
 423              	.L21:
 424 0014 00000000 		.word	_tcs34725IntegrationTime
 425              		.cfi_endproc
 426              	.LFE38:
 427              		.size	setIntegrationTime, .-setIntegrationTime
 428              		.section	.text.setGain,"ax",%progbits
 429              		.align	2
 430              		.global	setGain
 431              		.code	16
ARM GAS  C:\Users\ADMIN\AppData\Local\Temp\ccef7Aml.s 			page 12


 432              		.thumb_func
 433              		.type	setGain, %function
 434              	setGain:
 435              	.LFB39:
 197:tcs34725.c    **** 
 198:tcs34725.c    **** void setGain(uint8_t gain) {
 436              		.loc 1 198 0
 437              		.cfi_startproc
 438              		@ args = 0, pretend = 0, frame = 0
 439              		@ frame_needed = 0, uses_anonymous_args = 0
 440              	.LVL47:
 441 0000 10B5     		push	{r4, lr}
 442              		.cfi_def_cfa_offset 8
 443              		.cfi_offset 4, -8
 444              		.cfi_offset 14, -4
 445 0002 0400     		movs	r4, r0
 199:tcs34725.c    ****   
 200:tcs34725.c    ****   write8(TCS34725_CONTROL, gain);
 446              		.loc 1 200 0
 447 0004 0100     		movs	r1, r0
 448 0006 0F20     		movs	r0, #15
 449              	.LVL48:
 450 0008 FFF7FEFF 		bl	write8
 451              	.LVL49:
 201:tcs34725.c    **** 
 202:tcs34725.c    ****   _tcs34725Gain = gain;
 452              		.loc 1 202 0
 453 000c 014B     		ldr	r3, .L24
 454 000e 1C70     		strb	r4, [r3]
 203:tcs34725.c    **** }
 455              		.loc 1 203 0
 456              		@ sp needed
 457 0010 10BD     		pop	{r4, pc}
 458              	.L25:
 459 0012 C046     		.align	2
 460              	.L24:
 461 0014 00000000 		.word	_tcs34725Gain
 462              		.cfi_endproc
 463              	.LFE39:
 464              		.size	setGain, .-setGain
 465              		.section	.text.init,"ax",%progbits
 466              		.align	2
 467              		.global	init
 468              		.code	16
 469              		.thumb_func
 470              		.type	init, %function
 471              	init:
 472              	.LFB40:
 204:tcs34725.c    **** 
 205:tcs34725.c    **** 
 206:tcs34725.c    **** uint8_t init(uint8_t it, uint8_t gain) {
 473              		.loc 1 206 0
 474              		.cfi_startproc
 475              		@ args = 0, pretend = 0, frame = 0
 476              		@ frame_needed = 0, uses_anonymous_args = 0
 477              	.LVL50:
 478 0000 70B5     		push	{r4, r5, r6, lr}
ARM GAS  C:\Users\ADMIN\AppData\Local\Temp\ccef7Aml.s 			page 13


 479              		.cfi_def_cfa_offset 16
 480              		.cfi_offset 4, -16
 481              		.cfi_offset 5, -12
 482              		.cfi_offset 6, -8
 483              		.cfi_offset 14, -4
 484 0002 0500     		movs	r5, r0
 485 0004 0C00     		movs	r4, r1
 207:tcs34725.c    ****   /* Make sure we're actually connected */
 208:tcs34725.c    ****   uint8_t x = read8(TCS34725_ID);
 486              		.loc 1 208 0
 487 0006 1220     		movs	r0, #18
 488              	.LVL51:
 489 0008 FFF7FEFF 		bl	read8
 490              	.LVL52:
 209:tcs34725.c    **** 
 210:tcs34725.c    ****   if ((x != 0x4d) && (x != 0x44) && (x != 0x10)) {
 491              		.loc 1 210 0
 492 000c 4D28     		cmp	r0, #77
 493 000e 08D0     		beq	.L27
 494              		.loc 1 210 0 is_stmt 0 discriminator 1
 495 0010 4428     		cmp	r0, #68
 496 0012 06D0     		beq	.L27
 497              		.loc 1 210 0 discriminator 2
 498 0014 1028     		cmp	r0, #16
 499 0016 04D0     		beq	.L27
 211:tcs34725.c    ****     print("PROBLEM_READ_ID");
 500              		.loc 1 211 0 is_stmt 1
 501 0018 0D48     		ldr	r0, .L29
 502              	.LVL53:
 503 001a FFF7FEFF 		bl	print
 504              	.LVL54:
 212:tcs34725.c    ****     return false;
 505              		.loc 1 212 0
 506 001e 0020     		movs	r0, #0
 507 0020 14E0     		b	.L28
 508              	.LVL55:
 509              	.L27:
 213:tcs34725.c    ****   }
 214:tcs34725.c    ****   sprintf(str, "%u", x);
 510              		.loc 1 214 0
 511 0022 0C4E     		ldr	r6, .L29+4
 512 0024 0200     		movs	r2, r0
 513 0026 0C49     		ldr	r1, .L29+8
 514 0028 3000     		movs	r0, r6
 515              	.LVL56:
 516 002a FFF7FEFF 		bl	sprintf
 517              	.LVL57:
 215:tcs34725.c    ****   print(str);
 518              		.loc 1 215 0
 519 002e 3000     		movs	r0, r6
 520 0030 FFF7FEFF 		bl	print
 521              	.LVL58:
 216:tcs34725.c    **** 
 217:tcs34725.c    ****   _tcs34725Initialised = true;
 522              		.loc 1 217 0
 523 0034 0122     		movs	r2, #1
 524 0036 094B     		ldr	r3, .L29+12
ARM GAS  C:\Users\ADMIN\AppData\Local\Temp\ccef7Aml.s 			page 14


 525 0038 1A70     		strb	r2, [r3]
 218:tcs34725.c    **** 
 219:tcs34725.c    ****   setIntegrationTime(it);
 526              		.loc 1 219 0
 527 003a 2800     		movs	r0, r5
 528 003c FFF7FEFF 		bl	setIntegrationTime
 529              	.LVL59:
 220:tcs34725.c    ****   setGain(gain);
 530              		.loc 1 220 0
 531 0040 2000     		movs	r0, r4
 532 0042 FFF7FEFF 		bl	setGain
 533              	.LVL60:
 221:tcs34725.c    **** 
 222:tcs34725.c    ****   enable();
 534              		.loc 1 222 0
 535 0046 FFF7FEFF 		bl	enable
 536              	.LVL61:
 223:tcs34725.c    **** 
 224:tcs34725.c    ****   return true;
 537              		.loc 1 224 0
 538 004a 0120     		movs	r0, #1
 539              	.L28:
 225:tcs34725.c    **** }
 540              		.loc 1 225 0
 541              		@ sp needed
 542 004c 70BD     		pop	{r4, r5, r6, pc}
 543              	.L30:
 544 004e C046     		.align	2
 545              	.L29:
 546 0050 2C000000 		.word	.LC12
 547 0054 00000000 		.word	str
 548 0058 3C000000 		.word	.LC14
 549 005c 00000000 		.word	.LANCHOR0
 550              		.cfi_endproc
 551              	.LFE40:
 552              		.size	init, .-init
 553              		.section	.text.getRawData,"ax",%progbits
 554              		.align	2
 555              		.global	getRawData
 556              		.code	16
 557              		.thumb_func
 558              		.type	getRawData, %function
 559              	getRawData:
 560              	.LFB41:
 226:tcs34725.c    **** 
 227:tcs34725.c    **** //write raw values of red, green, blue, clear to r, g, b, c
 228:tcs34725.c    **** void getRawData(uint16_t *r, uint16_t *g, uint16_t *b,
 229:tcs34725.c    ****                                    uint16_t *c) {
 561              		.loc 1 229 0
 562              		.cfi_startproc
 563              		@ args = 0, pretend = 0, frame = 0
 564              		@ frame_needed = 0, uses_anonymous_args = 0
 565              	.LVL62:
 566 0000 F8B5     		push	{r3, r4, r5, r6, r7, lr}
 567              		.cfi_def_cfa_offset 24
 568              		.cfi_offset 3, -24
 569              		.cfi_offset 4, -20
ARM GAS  C:\Users\ADMIN\AppData\Local\Temp\ccef7Aml.s 			page 15


 570              		.cfi_offset 5, -16
 571              		.cfi_offset 6, -12
 572              		.cfi_offset 7, -8
 573              		.cfi_offset 14, -4
 574 0002 0600     		movs	r6, r0
 575 0004 0D00     		movs	r5, r1
 576 0006 1400     		movs	r4, r2
 577 0008 1F00     		movs	r7, r3
 230:tcs34725.c    ****   *c = read16(TCS34725_CDATAL);
 578              		.loc 1 230 0
 579 000a 1420     		movs	r0, #20
 580              	.LVL63:
 581 000c FFF7FEFF 		bl	read16
 582              	.LVL64:
 583 0010 3880     		strh	r0, [r7]
 231:tcs34725.c    ****   *r = read16(TCS34725_RDATAL);
 584              		.loc 1 231 0
 585 0012 1620     		movs	r0, #22
 586 0014 FFF7FEFF 		bl	read16
 587              	.LVL65:
 588 0018 3080     		strh	r0, [r6]
 232:tcs34725.c    ****   *g = read16(TCS34725_GDATAL);
 589              		.loc 1 232 0
 590 001a 1820     		movs	r0, #24
 591 001c FFF7FEFF 		bl	read16
 592              	.LVL66:
 593 0020 2880     		strh	r0, [r5]
 233:tcs34725.c    ****   *b = read16(TCS34725_BDATAL);
 594              		.loc 1 233 0
 595 0022 1A20     		movs	r0, #26
 596 0024 FFF7FEFF 		bl	read16
 597              	.LVL67:
 598 0028 2080     		strh	r0, [r4]
 234:tcs34725.c    **** 
 235:tcs34725.c    ****   /* Set a delay for the integration time */
 236:tcs34725.c    ****   /* 12/5 = 2.4, add 1 to account for integer truncation */
 237:tcs34725.c    ****   CyDelay((256 - _tcs34725IntegrationTime) * 12 / 5 + 1);
 599              		.loc 1 237 0
 600 002a 074B     		ldr	r3, .L32
 601 002c 1A78     		ldrb	r2, [r3]
 602 002e 8023     		movs	r3, #128
 603 0030 5B00     		lsls	r3, r3, #1
 604 0032 9B1A     		subs	r3, r3, r2
 605 0034 5A00     		lsls	r2, r3, #1
 606 0036 D318     		adds	r3, r2, r3
 607 0038 9800     		lsls	r0, r3, #2
 608 003a 0521     		movs	r1, #5
 609 003c FFF7FEFF 		bl	__aeabi_idiv
 610              	.LVL68:
 611 0040 0130     		adds	r0, r0, #1
 612 0042 FFF7FEFF 		bl	CyDelay
 613              	.LVL69:
 238:tcs34725.c    **** }
 614              		.loc 1 238 0
 615              		@ sp needed
 616              	.LVL70:
 617              	.LVL71:
ARM GAS  C:\Users\ADMIN\AppData\Local\Temp\ccef7Aml.s 			page 16


 618              	.LVL72:
 619              	.LVL73:
 620 0046 F8BD     		pop	{r3, r4, r5, r6, r7, pc}
 621              	.L33:
 622              		.align	2
 623              	.L32:
 624 0048 00000000 		.word	_tcs34725IntegrationTime
 625              		.cfi_endproc
 626              	.LFE41:
 627              		.size	getRawData, .-getRawData
 628              		.global	__aeabi_ui2f
 629              		.global	__aeabi_fdiv
 630              		.global	__aeabi_f2d
 631              		.global	__aeabi_dmul
 632              		.global	__aeabi_d2iz
 633              		.section	.text.getRGB,"ax",%progbits
 634              		.align	2
 635              		.global	getRGB
 636              		.code	16
 637              		.thumb_func
 638              		.type	getRGB, %function
 639              	getRGB:
 640              	.LFB42:
 239:tcs34725.c    ****                                 
 240:tcs34725.c    **** //write calculated values of red, green, blue, clear to r, g, b
 241:tcs34725.c    **** //in range 0-255
 242:tcs34725.c    **** void getRGB(int *r, int *g, int *b) {
 641              		.loc 1 242 0
 642              		.cfi_startproc
 643              		@ args = 0, pretend = 0, frame = 16
 644              		@ frame_needed = 0, uses_anonymous_args = 0
 645              	.LVL74:
 646 0000 F0B5     		push	{r4, r5, r6, r7, lr}
 647              		.cfi_def_cfa_offset 20
 648              		.cfi_offset 4, -20
 649              		.cfi_offset 5, -16
 650              		.cfi_offset 6, -12
 651              		.cfi_offset 7, -8
 652              		.cfi_offset 14, -4
 653 0002 85B0     		sub	sp, sp, #20
 654              		.cfi_def_cfa_offset 40
 655 0004 0600     		movs	r6, r0
 656 0006 0F00     		movs	r7, r1
 657 0008 1500     		movs	r5, r2
 243:tcs34725.c    ****   //print("rgb\n");
 244:tcs34725.c    ****   uint16_t red, green, blue, clear;
 245:tcs34725.c    ****   getRawData(&red, &green, &blue, &clear);
 658              		.loc 1 245 0
 659 000a 02AB     		add	r3, sp, #8
 660 000c 1A00     		movs	r2, r3
 661              	.LVL75:
 662 000e 0232     		adds	r2, r2, #2
 663 0010 03A9     		add	r1, sp, #12
 664              	.LVL76:
 665 0012 1800     		movs	r0, r3
 666              	.LVL77:
 667 0014 0630     		adds	r0, r0, #6
ARM GAS  C:\Users\ADMIN\AppData\Local\Temp\ccef7Aml.s 			page 17


 668 0016 FFF7FEFF 		bl	getRawData
 669              	.LVL78:
 246:tcs34725.c    **** 
 247:tcs34725.c    ****   uint32_t sum = clear;
 670              		.loc 1 247 0
 671 001a 02AB     		add	r3, sp, #8
 672 001c 1C88     		ldrh	r4, [r3]
 673              	.LVL79:
 248:tcs34725.c    **** 
 249:tcs34725.c    ****   // Avoid divide by zero errors ... if clear = 0 return black
 250:tcs34725.c    ****   if (clear == 0) {
 674              		.loc 1 250 0
 675 001e 002C     		cmp	r4, #0
 676 0020 04D1     		bne	.L35
 251:tcs34725.c    ****     *r = *g = *b = 0;
 677              		.loc 1 251 0
 678 0022 0023     		movs	r3, #0
 679 0024 2B60     		str	r3, [r5]
 680 0026 3B60     		str	r3, [r7]
 681 0028 3360     		str	r3, [r6]
 682 002a 35E0     		b	.L34
 683              	.L35:
 252:tcs34725.c    ****     return;
 253:tcs34725.c    ****   }
 254:tcs34725.c    **** 
 255:tcs34725.c    ****   *r = (int)((float)red / sum * 255.0);
 684              		.loc 1 255 0
 685 002c 02AB     		add	r3, sp, #8
 686 002e D888     		ldrh	r0, [r3, #6]
 687 0030 FFF7FEFF 		bl	__aeabi_ui2f
 688              	.LVL80:
 689 0034 0190     		str	r0, [sp, #4]
 690 0036 2000     		movs	r0, r4
 691 0038 FFF7FEFF 		bl	__aeabi_ui2f
 692              	.LVL81:
 693 003c 041C     		adds	r4, r0, #0
 694              	.LVL82:
 695 003e 011C     		adds	r1, r0, #0
 696 0040 0198     		ldr	r0, [sp, #4]
 697 0042 FFF7FEFF 		bl	__aeabi_fdiv
 698              	.LVL83:
 699 0046 FFF7FEFF 		bl	__aeabi_f2d
 700              	.LVL84:
 701 004a 0022     		movs	r2, #0
 702 004c 134B     		ldr	r3, .L37
 703 004e FFF7FEFF 		bl	__aeabi_dmul
 704              	.LVL85:
 705 0052 FFF7FEFF 		bl	__aeabi_d2iz
 706              	.LVL86:
 707 0056 3060     		str	r0, [r6]
 256:tcs34725.c    ****   *g = (int)((float)green / sum * 255.0);
 708              		.loc 1 256 0
 709 0058 03AB     		add	r3, sp, #12
 710 005a 1888     		ldrh	r0, [r3]
 711 005c FFF7FEFF 		bl	__aeabi_ui2f
 712              	.LVL87:
 713 0060 211C     		adds	r1, r4, #0
ARM GAS  C:\Users\ADMIN\AppData\Local\Temp\ccef7Aml.s 			page 18


 714 0062 FFF7FEFF 		bl	__aeabi_fdiv
 715              	.LVL88:
 716 0066 FFF7FEFF 		bl	__aeabi_f2d
 717              	.LVL89:
 718 006a 0022     		movs	r2, #0
 719 006c 0B4B     		ldr	r3, .L37
 720 006e FFF7FEFF 		bl	__aeabi_dmul
 721              	.LVL90:
 722 0072 FFF7FEFF 		bl	__aeabi_d2iz
 723              	.LVL91:
 724 0076 3860     		str	r0, [r7]
 257:tcs34725.c    ****   *b = (int)((float)blue / sum * 255.0);
 725              		.loc 1 257 0
 726 0078 02AB     		add	r3, sp, #8
 727 007a 5888     		ldrh	r0, [r3, #2]
 728 007c FFF7FEFF 		bl	__aeabi_ui2f
 729              	.LVL92:
 730 0080 211C     		adds	r1, r4, #0
 731 0082 FFF7FEFF 		bl	__aeabi_fdiv
 732              	.LVL93:
 733 0086 FFF7FEFF 		bl	__aeabi_f2d
 734              	.LVL94:
 735 008a 0022     		movs	r2, #0
 736 008c 034B     		ldr	r3, .L37
 737 008e FFF7FEFF 		bl	__aeabi_dmul
 738              	.LVL95:
 739 0092 FFF7FEFF 		bl	__aeabi_d2iz
 740              	.LVL96:
 741 0096 2860     		str	r0, [r5]
 742              	.L34:
 258:tcs34725.c    ****   //sprintf(str, "r %d | g %d | b %d\n", red, green, blue) ;
 259:tcs34725.c    ****   //sprintf(str, "r %d | g %d | b %d\n", (int)*r, (int)*g, (int)*b) ;
 260:tcs34725.c    ****   //print(str) ;
 261:tcs34725.c    ****   //CyDelay(1000);
 262:tcs34725.c    ****   //sprintf(str, "r %f | g %f | b %f\n", *r, *g, *b) ;
 263:tcs34725.c    ****   //print(str) ;
 264:tcs34725.c    **** 
 265:tcs34725.c    ****   //sprintf(str, "clear %d \n ", (int)sum) ;
 266:tcs34725.c    ****   //print(str) ;
 267:tcs34725.c    **** }
 743              		.loc 1 267 0
 744 0098 05B0     		add	sp, sp, #20
 745              		@ sp needed
 746              	.LVL97:
 747              	.LVL98:
 748              	.LVL99:
 749 009a F0BD     		pop	{r4, r5, r6, r7, pc}
 750              	.L38:
 751              		.align	2
 752              	.L37:
 753 009c 00E06F40 		.word	1081073664
 754              		.cfi_endproc
 755              	.LFE42:
 756              		.size	getRGB, .-getRGB
 757              		.section	.text.checkColor,"ax",%progbits
 758              		.align	2
 759              		.global	checkColor
ARM GAS  C:\Users\ADMIN\AppData\Local\Temp\ccef7Aml.s 			page 19


 760              		.code	16
 761              		.thumb_func
 762              		.type	checkColor, %function
 763              	checkColor:
 764              	.LFB43:
 268:tcs34725.c    **** 
 269:tcs34725.c    **** //return TRUE if scanned color is similar to input color
 270:tcs34725.c    **** /*
 271:tcs34725.c    **** uint8_t checkColor(struct RGB color, int r, int g, int b){
 272:tcs34725.c    ****     
 273:tcs34725.c    ****     if (((abs(color.r - r)) <= THRESHOLD) && ((abs(color.g - g)) <= THRESHOLD) && ((abs(color.b - b
 274:tcs34725.c    ****         return true;
 275:tcs34725.c    ****     }
 276:tcs34725.c    ****     return false;
 277:tcs34725.c    **** }
 278:tcs34725.c    **** */
 279:tcs34725.c    **** uint8_t checkColor(int color_min[3], int color_max[3], int r, int g, int b){
 765              		.loc 1 279 0
 766              		.cfi_startproc
 767              		@ args = 4, pretend = 0, frame = 0
 768              		@ frame_needed = 0, uses_anonymous_args = 0
 769              	.LVL100:
 770 0000 10B5     		push	{r4, lr}
 771              		.cfi_def_cfa_offset 8
 772              		.cfi_offset 4, -8
 773              		.cfi_offset 14, -4
 280:tcs34725.c    ****     
 281:tcs34725.c    ****     if ((color_min[0] <= r) && (color_min[1] <= g) && (color_min[2] <= b)){
 774              		.loc 1 281 0
 775 0002 0468     		ldr	r4, [r0]
 776 0004 9442     		cmp	r4, r2
 777 0006 11DC     		bgt	.L41
 778              		.loc 1 281 0 is_stmt 0 discriminator 1
 779 0008 4468     		ldr	r4, [r0, #4]
 780 000a 9C42     		cmp	r4, r3
 781 000c 10DC     		bgt	.L42
 782              		.loc 1 281 0 discriminator 2
 783 000e 8068     		ldr	r0, [r0, #8]
 784              	.LVL101:
 785 0010 029C     		ldr	r4, [sp, #8]
 786 0012 A042     		cmp	r0, r4
 787 0014 0EDC     		bgt	.L43
 282:tcs34725.c    ****         if ((color_max[0] >= r) && (color_max[1] >= g) && (color_max[2] >= b)){
 788              		.loc 1 282 0 is_stmt 1
 789 0016 0868     		ldr	r0, [r1]
 790 0018 8242     		cmp	r2, r0
 791 001a 0DDC     		bgt	.L44
 792              		.loc 1 282 0 is_stmt 0 discriminator 1
 793 001c 4A68     		ldr	r2, [r1, #4]
 794              	.LVL102:
 795 001e 9342     		cmp	r3, r2
 796 0020 0CDC     		bgt	.L45
 797              		.loc 1 282 0 discriminator 2
 798 0022 8B68     		ldr	r3, [r1, #8]
 799              	.LVL103:
 800 0024 9C42     		cmp	r4, r3
 801 0026 0BDD     		ble	.L46
ARM GAS  C:\Users\ADMIN\AppData\Local\Temp\ccef7Aml.s 			page 20


 283:tcs34725.c    ****             return true;
 284:tcs34725.c    ****         }
 285:tcs34725.c    ****         
 286:tcs34725.c    ****     }
 287:tcs34725.c    ****     return false;
 802              		.loc 1 287 0 is_stmt 1
 803 0028 0020     		movs	r0, #0
 804 002a 0AE0     		b	.L40
 805              	.LVL104:
 806              	.L41:
 807 002c 0020     		movs	r0, #0
 808              	.LVL105:
 809 002e 08E0     		b	.L40
 810              	.LVL106:
 811              	.L42:
 812 0030 0020     		movs	r0, #0
 813              	.LVL107:
 814 0032 06E0     		b	.L40
 815              	.L43:
 816 0034 0020     		movs	r0, #0
 817 0036 04E0     		b	.L40
 818              	.L44:
 819 0038 0020     		movs	r0, #0
 820 003a 02E0     		b	.L40
 821              	.LVL108:
 822              	.L45:
 823 003c 0020     		movs	r0, #0
 824 003e 00E0     		b	.L40
 825              	.LVL109:
 826              	.L46:
 283:tcs34725.c    ****             return true;
 827              		.loc 1 283 0
 828 0040 0120     		movs	r0, #1
 829              	.L40:
 288:tcs34725.c    **** }
 830              		.loc 1 288 0
 831              		@ sp needed
 832 0042 10BD     		pop	{r4, pc}
 833              		.cfi_endproc
 834              	.LFE43:
 835              		.size	checkColor, .-checkColor
 836              		.section	.text.getColor,"ax",%progbits
 837              		.align	2
 838              		.global	getColor
 839              		.code	16
 840              		.thumb_func
 841              		.type	getColor, %function
 842              	getColor:
 843              	.LFB44:
 289:tcs34725.c    **** 
 290:tcs34725.c    **** //return scanned color
 291:tcs34725.c    **** uint8_t getColor(int r, int g, int b){
 844              		.loc 1 291 0
 845              		.cfi_startproc
 846              		@ args = 0, pretend = 0, frame = 0
 847              		@ frame_needed = 0, uses_anonymous_args = 0
 848              	.LVL110:
ARM GAS  C:\Users\ADMIN\AppData\Local\Temp\ccef7Aml.s 			page 21


 849 0000 F0B5     		push	{r4, r5, r6, r7, lr}
 850              		.cfi_def_cfa_offset 20
 851              		.cfi_offset 4, -20
 852              		.cfi_offset 5, -16
 853              		.cfi_offset 6, -12
 854              		.cfi_offset 7, -8
 855              		.cfi_offset 14, -4
 856 0002 83B0     		sub	sp, sp, #12
 857              		.cfi_def_cfa_offset 32
 858 0004 0400     		movs	r4, r0
 859 0006 0D00     		movs	r5, r1
 860 0008 1600     		movs	r6, r2
 292:tcs34725.c    ****     sprintf(str, "r %d | g %d | b %d\n", r, g, b) ;
 861              		.loc 1 292 0
 862 000a 3A4F     		ldr	r7, .L55
 863 000c 0092     		str	r2, [sp]
 864 000e 0B00     		movs	r3, r1
 865 0010 0200     		movs	r2, r0
 866              	.LVL111:
 867 0012 3949     		ldr	r1, .L55+4
 868              	.LVL112:
 869 0014 3800     		movs	r0, r7
 870              	.LVL113:
 871 0016 FFF7FEFF 		bl	sprintf
 872              	.LVL114:
 293:tcs34725.c    ****     print(str) ;
 873              		.loc 1 293 0
 874 001a 3800     		movs	r0, r7
 875 001c FFF7FEFF 		bl	print
 876              	.LVL115:
 294:tcs34725.c    ****     //CyDelay(1000);
 295:tcs34725.c    ****     state = CANDY;
 877              		.loc 1 295 0
 878 0020 3649     		ldr	r1, .L55+8
 879 0022 0123     		movs	r3, #1
 880 0024 4B70     		strb	r3, [r1, #1]
 296:tcs34725.c    ****     if (checkColor(red_struct_min, red_struct_max, r, g, b)){
 881              		.loc 1 296 0
 882 0026 0431     		adds	r1, r1, #4
 883 0028 0096     		str	r6, [sp]
 884 002a 2B00     		movs	r3, r5
 885 002c 2200     		movs	r2, r4
 886 002e 3448     		ldr	r0, .L55+12
 887 0030 FFF7FEFF 		bl	checkColor
 888              	.LVL116:
 889 0034 0028     		cmp	r0, #0
 890 0036 04D0     		beq	.L48
 297:tcs34725.c    ****         print("RED");
 891              		.loc 1 297 0
 892 0038 3248     		ldr	r0, .L55+16
 893 003a FFF7FEFF 		bl	print
 894              	.LVL117:
 298:tcs34725.c    ****         return RED;
 895              		.loc 1 298 0
 896 003e 0120     		movs	r0, #1
 897 0040 56E0     		b	.L49
 898              	.L48:
ARM GAS  C:\Users\ADMIN\AppData\Local\Temp\ccef7Aml.s 			page 22


 299:tcs34725.c    ****     }else if (checkColor(green_struct_min, green_struct_max, r, g, b)){
 899              		.loc 1 299 0
 900 0042 0096     		str	r6, [sp]
 901 0044 2B00     		movs	r3, r5
 902 0046 2200     		movs	r2, r4
 903 0048 2C49     		ldr	r1, .L55+8
 904 004a 1031     		adds	r1, r1, #16
 905 004c 2C48     		ldr	r0, .L55+12
 906 004e 0C30     		adds	r0, r0, #12
 907 0050 FFF7FEFF 		bl	checkColor
 908              	.LVL118:
 909 0054 0028     		cmp	r0, #0
 910 0056 04D0     		beq	.L50
 300:tcs34725.c    ****         print("GREEN");
 911              		.loc 1 300 0
 912 0058 2B48     		ldr	r0, .L55+20
 913 005a FFF7FEFF 		bl	print
 914              	.LVL119:
 301:tcs34725.c    ****         return GREEN;
 915              		.loc 1 301 0
 916 005e 0420     		movs	r0, #4
 917 0060 46E0     		b	.L49
 918              	.L50:
 302:tcs34725.c    ****     }else if (checkColor(blue_struct_min, blue_struct_max, r, g, b)){
 919              		.loc 1 302 0
 920 0062 0096     		str	r6, [sp]
 921 0064 2B00     		movs	r3, r5
 922 0066 2200     		movs	r2, r4
 923 0068 2449     		ldr	r1, .L55+8
 924 006a 1C31     		adds	r1, r1, #28
 925 006c 2448     		ldr	r0, .L55+12
 926 006e 1830     		adds	r0, r0, #24
 927 0070 FFF7FEFF 		bl	checkColor
 928              	.LVL120:
 929 0074 0028     		cmp	r0, #0
 930 0076 04D0     		beq	.L51
 303:tcs34725.c    ****         print("BLUE");
 931              		.loc 1 303 0
 932 0078 2448     		ldr	r0, .L55+24
 933 007a FFF7FEFF 		bl	print
 934              	.LVL121:
 304:tcs34725.c    ****         return BLUE;
 935              		.loc 1 304 0
 936 007e 0520     		movs	r0, #5
 937 0080 36E0     		b	.L49
 938              	.L51:
 305:tcs34725.c    ****     }else if (checkColor(orange_struct_min, orange_struct_max, r, g, b)){
 939              		.loc 1 305 0
 940 0082 0096     		str	r6, [sp]
 941 0084 2B00     		movs	r3, r5
 942 0086 2200     		movs	r2, r4
 943 0088 1C49     		ldr	r1, .L55+8
 944 008a 2831     		adds	r1, r1, #40
 945 008c 1C48     		ldr	r0, .L55+12
 946 008e 2430     		adds	r0, r0, #36
 947 0090 FFF7FEFF 		bl	checkColor
 948              	.LVL122:
ARM GAS  C:\Users\ADMIN\AppData\Local\Temp\ccef7Aml.s 			page 23


 949 0094 0028     		cmp	r0, #0
 950 0096 04D0     		beq	.L52
 306:tcs34725.c    ****         print("ORANGE");
 951              		.loc 1 306 0
 952 0098 1D48     		ldr	r0, .L55+28
 953 009a FFF7FEFF 		bl	print
 954              	.LVL123:
 307:tcs34725.c    ****         return ORANGE;
 955              		.loc 1 307 0
 956 009e 0320     		movs	r0, #3
 957 00a0 26E0     		b	.L49
 958              	.L52:
 308:tcs34725.c    ****     }else if (checkColor(brown_struct_min, brown_struct_max, r, g, b)){
 959              		.loc 1 308 0
 960 00a2 0096     		str	r6, [sp]
 961 00a4 2B00     		movs	r3, r5
 962 00a6 2200     		movs	r2, r4
 963 00a8 1449     		ldr	r1, .L55+8
 964 00aa 3431     		adds	r1, r1, #52
 965 00ac 1448     		ldr	r0, .L55+12
 966 00ae 3030     		adds	r0, r0, #48
 967 00b0 FFF7FEFF 		bl	checkColor
 968              	.LVL124:
 969 00b4 0028     		cmp	r0, #0
 970 00b6 04D0     		beq	.L53
 309:tcs34725.c    ****         print("BROWN");
 971              		.loc 1 309 0
 972 00b8 1648     		ldr	r0, .L55+32
 973 00ba FFF7FEFF 		bl	print
 974              	.LVL125:
 310:tcs34725.c    ****         //delete later
 311:tcs34725.c    ****         //state = NONE;
 312:tcs34725.c    ****         return BROWN;
 975              		.loc 1 312 0
 976 00be 0620     		movs	r0, #6
 977 00c0 16E0     		b	.L49
 978              	.L53:
 313:tcs34725.c    ****     }else if (checkColor(yellow_struct_min, yellow_struct_max, r, g, b)){
 979              		.loc 1 313 0
 980 00c2 0096     		str	r6, [sp]
 981 00c4 2B00     		movs	r3, r5
 982 00c6 2200     		movs	r2, r4
 983 00c8 0C49     		ldr	r1, .L55+8
 984 00ca 4031     		adds	r1, r1, #64
 985 00cc 0C48     		ldr	r0, .L55+12
 986 00ce 3C30     		adds	r0, r0, #60
 987 00d0 FFF7FEFF 		bl	checkColor
 988              	.LVL126:
 989 00d4 0028     		cmp	r0, #0
 990 00d6 04D0     		beq	.L54
 314:tcs34725.c    ****         print("YELLOW");
 991              		.loc 1 314 0
 992 00d8 0F48     		ldr	r0, .L55+36
 993 00da FFF7FEFF 		bl	print
 994              	.LVL127:
 315:tcs34725.c    ****         return YELLOW;
 995              		.loc 1 315 0
ARM GAS  C:\Users\ADMIN\AppData\Local\Temp\ccef7Aml.s 			page 24


 996 00de 0220     		movs	r0, #2
 997 00e0 06E0     		b	.L49
 998              	.L54:
 316:tcs34725.c    ****     }else{
 317:tcs34725.c    ****         print("NONE");
 999              		.loc 1 317 0
 1000 00e2 0E48     		ldr	r0, .L55+40
 1001 00e4 FFF7FEFF 		bl	print
 1002              	.LVL128:
 318:tcs34725.c    ****         state = NONE;
 1003              		.loc 1 318 0
 1004 00e8 0022     		movs	r2, #0
 1005 00ea 044B     		ldr	r3, .L55+8
 1006 00ec 5A70     		strb	r2, [r3, #1]
 319:tcs34725.c    ****         return BLACK;
 1007              		.loc 1 319 0
 1008 00ee 0720     		movs	r0, #7
 1009              	.L49:
 320:tcs34725.c    ****     }
 321:tcs34725.c    ****     
 322:tcs34725.c    **** }
 1010              		.loc 1 322 0
 1011 00f0 03B0     		add	sp, sp, #12
 1012              		@ sp needed
 1013              	.LVL129:
 1014              	.LVL130:
 1015              	.LVL131:
 1016 00f2 F0BD     		pop	{r4, r5, r6, r7, pc}
 1017              	.L56:
 1018              		.align	2
 1019              	.L55:
 1020 00f4 00000000 		.word	str
 1021 00f8 40000000 		.word	.LC19
 1022 00fc 00000000 		.word	.LANCHOR0
 1023 0100 00000000 		.word	.LANCHOR1
 1024 0104 54000000 		.word	.LC24
 1025 0108 58000000 		.word	.LC26
 1026 010c 60000000 		.word	.LC28
 1027 0110 68000000 		.word	.LC30
 1028 0114 70000000 		.word	.LC32
 1029 0118 78000000 		.word	.LC34
 1030 011c 80000000 		.word	.LC36
 1031              		.cfi_endproc
 1032              	.LFE44:
 1033              		.size	getColor, .-getColor
 1034              		.section	.text.LED,"ax",%progbits
 1035              		.align	2
 1036              		.global	LED
 1037              		.code	16
 1038              		.thumb_func
 1039              		.type	LED, %function
 1040              	LED:
 1041              	.LFB45:
 323:tcs34725.c    **** 
 324:tcs34725.c    **** //light LED with input color
 325:tcs34725.c    **** void LED(struct RGB color){
 1042              		.loc 1 325 0
ARM GAS  C:\Users\ADMIN\AppData\Local\Temp\ccef7Aml.s 			page 25


 1043              		.cfi_startproc
 1044              		@ args = 0, pretend = 0, frame = 8
 1045              		@ frame_needed = 0, uses_anonymous_args = 0
 1046 0000 30B5     		push	{r4, r5, lr}
 1047              		.cfi_def_cfa_offset 12
 1048              		.cfi_offset 4, -12
 1049              		.cfi_offset 5, -8
 1050              		.cfi_offset 14, -4
 1051 0002 83B0     		sub	sp, sp, #12
 1052              		.cfi_def_cfa_offset 24
 1053 0004 01AD     		add	r5, sp, #4
 1054 0006 0190     		str	r0, [sp, #4]
 326:tcs34725.c    ****     
 327:tcs34725.c    ****     PWM_RED_WriteCompare(255 - color.r);
 1055              		.loc 1 327 0
 1056 0008 C0B2     		uxtb	r0, r0
 1057 000a FF24     		movs	r4, #255
 1058 000c 201A     		subs	r0, r4, r0
 1059 000e FFF7FEFF 		bl	PWM_RED_WriteCompare
 1060              	.LVL132:
 328:tcs34725.c    ****     PWM_GREEN_WriteCompare(255 -color.g);
 1061              		.loc 1 328 0
 1062 0012 6878     		ldrb	r0, [r5, #1]
 1063 0014 201A     		subs	r0, r4, r0
 1064 0016 FFF7FEFF 		bl	PWM_GREEN_WriteCompare
 1065              	.LVL133:
 329:tcs34725.c    ****     PWM_BLUE_WriteCompare(255 - color.b);
 1066              		.loc 1 329 0
 1067 001a A878     		ldrb	r0, [r5, #2]
 1068 001c 201A     		subs	r0, r4, r0
 1069 001e FFF7FEFF 		bl	PWM_BLUE_WriteCompare
 1070              	.LVL134:
 330:tcs34725.c    ****     
 331:tcs34725.c    **** }
 1071              		.loc 1 331 0
 1072 0022 03B0     		add	sp, sp, #12
 1073              		@ sp needed
 1074 0024 30BD     		pop	{r4, r5, pc}
 1075              		.cfi_endproc
 1076              	.LFE45:
 1077              		.size	LED, .-LED
 1078 0026 C046     		.section	.text.lightColor,"ax",%progbits
 1079              		.align	2
 1080              		.global	lightColor
 1081              		.code	16
 1082              		.thumb_func
 1083              		.type	lightColor, %function
 1084              	lightColor:
 1085              	.LFB46:
 332:tcs34725.c    **** 
 333:tcs34725.c    **** //light led with scanned color
 334:tcs34725.c    **** void lightColor(uint8_t col){
 1086              		.loc 1 334 0
 1087              		.cfi_startproc
 1088              		@ args = 0, pretend = 0, frame = 0
 1089              		@ frame_needed = 0, uses_anonymous_args = 0
 1090              	.LVL135:
ARM GAS  C:\Users\ADMIN\AppData\Local\Temp\ccef7Aml.s 			page 26


 1091 0000 10B5     		push	{r4, lr}
 1092              		.cfi_def_cfa_offset 8
 1093              		.cfi_offset 4, -8
 1094              		.cfi_offset 14, -4
 335:tcs34725.c    ****     switch(col){
 1095              		.loc 1 335 0
 1096 0002 0628     		cmp	r0, #6
 1097 0004 21D8     		bhi	.L59
 1098 0006 8000     		lsls	r0, r0, #2
 1099              	.LVL136:
 1100 0008 124B     		ldr	r3, .L68
 1101 000a 1B58     		ldr	r3, [r3, r0]
 1102 000c 9F46     		mov	pc, r3
 1103              		.section	.rodata
 1104              		.align	2
 1105              	.L61:
 1106 0000 4A000000 		.word	.L59
 1107 0004 0E000000 		.word	.L60
 1108 0008 2C000000 		.word	.L62
 1109 000c 36000000 		.word	.L63
 1110 0010 18000000 		.word	.L64
 1111 0014 22000000 		.word	.L65
 1112 0018 40000000 		.word	.L66
 1113              		.section	.text.lightColor
 1114              	.L60:
 336:tcs34725.c    ****         case RED:
 337:tcs34725.c    ****             LED(red_led);
 1115              		.loc 1 337 0
 1116 000e 124B     		ldr	r3, .L68+4
 1117 0010 986C     		ldr	r0, [r3, #72]
 1118 0012 FFF7FEFF 		bl	LED
 1119              	.LVL137:
 338:tcs34725.c    ****             break;
 1120              		.loc 1 338 0
 1121 0016 1CE0     		b	.L58
 1122              	.L64:
 339:tcs34725.c    ****         case GREEN:
 340:tcs34725.c    ****             LED(green_led);
 1123              		.loc 1 340 0
 1124 0018 0F4B     		ldr	r3, .L68+4
 1125 001a D86C     		ldr	r0, [r3, #76]
 1126 001c FFF7FEFF 		bl	LED
 1127              	.LVL138:
 341:tcs34725.c    ****             break;
 1128              		.loc 1 341 0
 1129 0020 17E0     		b	.L58
 1130              	.L65:
 342:tcs34725.c    ****         case BLUE:
 343:tcs34725.c    ****             LED(blue_led);
 1131              		.loc 1 343 0
 1132 0022 0D4B     		ldr	r3, .L68+4
 1133 0024 186D     		ldr	r0, [r3, #80]
 1134 0026 FFF7FEFF 		bl	LED
 1135              	.LVL139:
 344:tcs34725.c    ****             break;
 1136              		.loc 1 344 0
 1137 002a 12E0     		b	.L58
ARM GAS  C:\Users\ADMIN\AppData\Local\Temp\ccef7Aml.s 			page 27


 1138              	.L62:
 345:tcs34725.c    ****         case YELLOW:
 346:tcs34725.c    ****             LED(yellow_led);
 1139              		.loc 1 346 0
 1140 002c 0A4B     		ldr	r3, .L68+4
 1141 002e 586D     		ldr	r0, [r3, #84]
 1142 0030 FFF7FEFF 		bl	LED
 1143              	.LVL140:
 347:tcs34725.c    ****             break;
 1144              		.loc 1 347 0
 1145 0034 0DE0     		b	.L58
 1146              	.L63:
 348:tcs34725.c    ****         case ORANGE:
 349:tcs34725.c    ****             LED(orange_led);
 1147              		.loc 1 349 0
 1148 0036 084B     		ldr	r3, .L68+4
 1149 0038 986D     		ldr	r0, [r3, #88]
 1150 003a FFF7FEFF 		bl	LED
 1151              	.LVL141:
 350:tcs34725.c    ****             break;
 1152              		.loc 1 350 0
 1153 003e 08E0     		b	.L58
 1154              	.L66:
 351:tcs34725.c    ****         case BROWN:
 352:tcs34725.c    ****             LED(brown_led);
 1155              		.loc 1 352 0
 1156 0040 054B     		ldr	r3, .L68+4
 1157 0042 D86D     		ldr	r0, [r3, #92]
 1158 0044 FFF7FEFF 		bl	LED
 1159              	.LVL142:
 353:tcs34725.c    ****             break;
 1160              		.loc 1 353 0
 1161 0048 03E0     		b	.L58
 1162              	.L59:
 354:tcs34725.c    ****         default:
 355:tcs34725.c    ****             LED(black_led);
 1163              		.loc 1 355 0
 1164 004a 044B     		ldr	r3, .L68+8
 1165 004c D86C     		ldr	r0, [r3, #76]
 1166 004e FFF7FEFF 		bl	LED
 1167              	.LVL143:
 1168              	.L58:
 356:tcs34725.c    ****             break;
 357:tcs34725.c    ****            
 358:tcs34725.c    ****     }
 359:tcs34725.c    **** }
 1169              		.loc 1 359 0
 1170              		@ sp needed
 1171 0052 10BD     		pop	{r4, pc}
 1172              	.L69:
 1173              		.align	2
 1174              	.L68:
 1175 0054 00000000 		.word	.L61
 1176 0058 00000000 		.word	.LANCHOR1
 1177 005c 00000000 		.word	.LANCHOR0
 1178              		.cfi_endproc
 1179              	.LFE46:
ARM GAS  C:\Users\ADMIN\AppData\Local\Temp\ccef7Aml.s 			page 28


 1180              		.size	lightColor, .-lightColor
 1181              		.section	.text.preparation,"ax",%progbits
 1182              		.align	2
 1183              		.global	preparation
 1184              		.code	16
 1185              		.thumb_func
 1186              		.type	preparation, %function
 1187              	preparation:
 1188              	.LFB47:
 360:tcs34725.c    **** 
 361:tcs34725.c    **** 
 362:tcs34725.c    **** int preparation(int count_settings){
 1189              		.loc 1 362 0
 1190              		.cfi_startproc
 1191              		@ args = 0, pretend = 0, frame = 0
 1192              		@ frame_needed = 0, uses_anonymous_args = 0
 1193              	.LVL144:
 1194 0000 10B5     		push	{r4, lr}
 1195              		.cfi_def_cfa_offset 8
 1196              		.cfi_offset 4, -8
 1197              		.cfi_offset 14, -4
 363:tcs34725.c    ****     
 364:tcs34725.c    ****     
 365:tcs34725.c    ****     if (count_settings == 0){
 1198              		.loc 1 365 0
 1199 0002 0028     		cmp	r0, #0
 1200 0004 09D1     		bne	.L71
 366:tcs34725.c    ****         sprintf(str, "preparation %d", count_settings);
 1201              		.loc 1 366 0
 1202 0006 0200     		movs	r2, r0
 1203 0008 1F49     		ldr	r1, .L80
 1204 000a 2048     		ldr	r0, .L80+4
 1205              	.LVL145:
 1206 000c FFF7FEFF 		bl	sprintf
 1207              	.LVL146:
 367:tcs34725.c    ****         //print(str);
 368:tcs34725.c    ****         analyze_measurement_boundaries_none(min_none_color, max_none_color);
 1208              		.loc 1 368 0
 1209 0010 1F49     		ldr	r1, .L80+8
 1210 0012 2048     		ldr	r0, .L80+12
 1211 0014 FFF7FEFF 		bl	analyze_measurement_boundaries_none
 1212              	.LVL147:
 369:tcs34725.c    ****         return 0;
 1213              		.loc 1 369 0
 1214 0018 33E0     		b	.L72
 1215              	.LVL148:
 1216              	.L71:
 370:tcs34725.c    ****     }
 371:tcs34725.c    ****     
 372:tcs34725.c    ****     
 373:tcs34725.c    ****     switch(count_settings){
 1217              		.loc 1 373 0
 1218 001a 0628     		cmp	r0, #6
 1219 001c 31D8     		bhi	.L72
 1220 001e 8300     		lsls	r3, r0, #2
 1221 0020 1D4A     		ldr	r2, .L80+16
 1222 0022 D358     		ldr	r3, [r2, r3]
ARM GAS  C:\Users\ADMIN\AppData\Local\Temp\ccef7Aml.s 			page 29


 1223 0024 9F46     		mov	pc, r3
 1224              		.section	.rodata
 1225              		.align	2
 1226              	.L74:
 1227 001c 82000000 		.word	.L72
 1228 0020 26000000 		.word	.L73
 1229 0024 54000000 		.word	.L75
 1230 0028 64000000 		.word	.L76
 1231 002c 34000000 		.word	.L77
 1232 0030 44000000 		.word	.L78
 1233 0034 74000000 		.word	.L79
 1234              		.section	.text.preparation
 1235              	.L73:
 374:tcs34725.c    ****         case RED:
 375:tcs34725.c    ****             analyze_measurement_boundaries_color(red_struct_min, red_struct_max, count_settings);
 1236              		.loc 1 375 0
 1237 0026 0200     		movs	r2, r0
 1238 0028 1C49     		ldr	r1, .L80+20
 1239 002a 0431     		adds	r1, r1, #4
 1240 002c 1C48     		ldr	r0, .L80+24
 1241              	.LVL149:
 1242 002e FFF7FEFF 		bl	analyze_measurement_boundaries_color
 1243              	.LVL150:
 376:tcs34725.c    ****             break;
 1244              		.loc 1 376 0
 1245 0032 26E0     		b	.L72
 1246              	.LVL151:
 1247              	.L77:
 377:tcs34725.c    ****         case GREEN:
 378:tcs34725.c    ****             analyze_measurement_boundaries_color(green_struct_min, green_struct_max, count_settings
 1248              		.loc 1 378 0
 1249 0034 0200     		movs	r2, r0
 1250 0036 1949     		ldr	r1, .L80+20
 1251 0038 1031     		adds	r1, r1, #16
 1252 003a 1948     		ldr	r0, .L80+24
 1253              	.LVL152:
 1254 003c 0C30     		adds	r0, r0, #12
 1255 003e FFF7FEFF 		bl	analyze_measurement_boundaries_color
 1256              	.LVL153:
 379:tcs34725.c    ****             break;
 1257              		.loc 1 379 0
 1258 0042 1EE0     		b	.L72
 1259              	.LVL154:
 1260              	.L78:
 380:tcs34725.c    ****         case BLUE:
 381:tcs34725.c    ****             analyze_measurement_boundaries_color(blue_struct_min, blue_struct_max, count_settings);
 1261              		.loc 1 381 0
 1262 0044 0200     		movs	r2, r0
 1263 0046 1549     		ldr	r1, .L80+20
 1264 0048 1C31     		adds	r1, r1, #28
 1265 004a 1548     		ldr	r0, .L80+24
 1266              	.LVL155:
 1267 004c 1830     		adds	r0, r0, #24
 1268 004e FFF7FEFF 		bl	analyze_measurement_boundaries_color
 1269              	.LVL156:
 382:tcs34725.c    ****             break;
 1270              		.loc 1 382 0
ARM GAS  C:\Users\ADMIN\AppData\Local\Temp\ccef7Aml.s 			page 30


 1271 0052 16E0     		b	.L72
 1272              	.LVL157:
 1273              	.L75:
 383:tcs34725.c    ****         case YELLOW:
 384:tcs34725.c    ****             analyze_measurement_boundaries_color(yellow_struct_min, yellow_struct_max, count_settin
 1274              		.loc 1 384 0
 1275 0054 0200     		movs	r2, r0
 1276 0056 1149     		ldr	r1, .L80+20
 1277 0058 4031     		adds	r1, r1, #64
 1278 005a 1148     		ldr	r0, .L80+24
 1279              	.LVL158:
 1280 005c 3C30     		adds	r0, r0, #60
 1281 005e FFF7FEFF 		bl	analyze_measurement_boundaries_color
 1282              	.LVL159:
 385:tcs34725.c    ****             break;
 1283              		.loc 1 385 0
 1284 0062 0EE0     		b	.L72
 1285              	.LVL160:
 1286              	.L76:
 386:tcs34725.c    ****         case ORANGE:
 387:tcs34725.c    ****             analyze_measurement_boundaries_color(orange_struct_min, orange_struct_max, count_settin
 1287              		.loc 1 387 0
 1288 0064 0200     		movs	r2, r0
 1289 0066 0D49     		ldr	r1, .L80+20
 1290 0068 2831     		adds	r1, r1, #40
 1291 006a 0D48     		ldr	r0, .L80+24
 1292              	.LVL161:
 1293 006c 2430     		adds	r0, r0, #36
 1294 006e FFF7FEFF 		bl	analyze_measurement_boundaries_color
 1295              	.LVL162:
 388:tcs34725.c    ****             break;
 1296              		.loc 1 388 0
 1297 0072 06E0     		b	.L72
 1298              	.LVL163:
 1299              	.L79:
 389:tcs34725.c    ****         case BROWN:
 390:tcs34725.c    ****             analyze_measurement_boundaries_color(brown_struct_min, brown_struct_max, count_settings
 1300              		.loc 1 390 0
 1301 0074 0200     		movs	r2, r0
 1302 0076 0949     		ldr	r1, .L80+20
 1303 0078 3431     		adds	r1, r1, #52
 1304 007a 0948     		ldr	r0, .L80+24
 1305              	.LVL164:
 1306 007c 3030     		adds	r0, r0, #48
 1307 007e FFF7FEFF 		bl	analyze_measurement_boundaries_color
 1308              	.LVL165:
 1309              	.L72:
 391:tcs34725.c    ****             break;
 392:tcs34725.c    ****         default:
 393:tcs34725.c    ****             
 394:tcs34725.c    ****             break;
 395:tcs34725.c    ****     }
 396:tcs34725.c    ****     
 397:tcs34725.c    ****     
 398:tcs34725.c    ****     
 399:tcs34725.c    ****     return 0;
 400:tcs34725.c    **** }
ARM GAS  C:\Users\ADMIN\AppData\Local\Temp\ccef7Aml.s 			page 31


 1310              		.loc 1 400 0
 1311 0082 0020     		movs	r0, #0
 1312              		@ sp needed
 1313 0084 10BD     		pop	{r4, pc}
 1314              	.L81:
 1315 0086 C046     		.align	2
 1316              	.L80:
 1317 0088 88000000 		.word	.LC42
 1318 008c 00000000 		.word	str
 1319 0090 00000000 		.word	max_none_color
 1320 0094 00000000 		.word	min_none_color
 1321 0098 1C000000 		.word	.L74
 1322 009c 00000000 		.word	.LANCHOR0
 1323 00a0 00000000 		.word	.LANCHOR1
 1324              		.cfi_endproc
 1325              	.LFE47:
 1326              		.size	preparation, .-preparation
 1327              		.global	state
 1328              		.comm	status,4,4
 1329              		.comm	_tcs34725IntegrationTime,1,1
 1330              		.comm	_tcs34725Gain,1,1
 1331              		.global	_tcs34725Initialised
 1332              		.global	black_led
 1333              		.global	brown_led
 1334              		.global	orange_led
 1335              		.global	yellow_led
 1336              		.global	blue_led
 1337              		.global	green_led
 1338              		.global	red_led
 1339              		.global	brown_struct_max
 1340              		.global	brown_struct_min
 1341              		.global	orange_struct_max
 1342              		.global	orange_struct_min
 1343              		.global	yellow_struct_max
 1344              		.global	yellow_struct_min
 1345              		.global	blue_struct_max
 1346              		.global	blue_struct_min
 1347              		.global	green_struct_max
 1348              		.global	green_struct_min
 1349              		.global	red_struct_max
 1350              		.global	red_struct_min
 1351              		.global	brown_struct
 1352              		.global	orange_struct
 1353              		.global	yellow_struct
 1354              		.global	blue_struct
 1355              		.global	green_struct
 1356              		.global	red_struct
 1357              		.comm	boundaries,144,4
 1358              		.comm	max_cur_color,12,4
 1359              		.comm	min_cur_color,12,4
 1360              		.comm	max_none_color,12,4
 1361              		.comm	min_none_color,12,4
 1362              		.comm	button_pushed,1,1
 1363              		.data
 1364              		.align	2
 1365              		.set	.LANCHOR1,. + 0
 1366              		.type	red_struct_min, %object
ARM GAS  C:\Users\ADMIN\AppData\Local\Temp\ccef7Aml.s 			page 32


 1367              		.size	red_struct_min, 12
 1368              	red_struct_min:
 1369 0000 FF000000 		.word	255
 1370 0004 FF000000 		.word	255
 1371 0008 FF000000 		.word	255
 1372              		.type	green_struct_min, %object
 1373              		.size	green_struct_min, 12
 1374              	green_struct_min:
 1375 000c FF000000 		.word	255
 1376 0010 FF000000 		.word	255
 1377 0014 FF000000 		.word	255
 1378              		.type	blue_struct_min, %object
 1379              		.size	blue_struct_min, 12
 1380              	blue_struct_min:
 1381 0018 FF000000 		.word	255
 1382 001c FF000000 		.word	255
 1383 0020 FF000000 		.word	255
 1384              		.type	orange_struct_min, %object
 1385              		.size	orange_struct_min, 12
 1386              	orange_struct_min:
 1387 0024 FF000000 		.word	255
 1388 0028 FF000000 		.word	255
 1389 002c FF000000 		.word	255
 1390              		.type	brown_struct_min, %object
 1391              		.size	brown_struct_min, 12
 1392              	brown_struct_min:
 1393 0030 FF000000 		.word	255
 1394 0034 FF000000 		.word	255
 1395 0038 FF000000 		.word	255
 1396              		.type	yellow_struct_min, %object
 1397              		.size	yellow_struct_min, 12
 1398              	yellow_struct_min:
 1399 003c FF000000 		.word	255
 1400 0040 FF000000 		.word	255
 1401 0044 FF000000 		.word	255
 1402              		.type	red_led, %object
 1403              		.size	red_led, 3
 1404              	red_led:
 1405 0048 FF       		.byte	-1
 1406 0049 00       		.byte	0
 1407 004a 00       		.byte	0
 1408 004b 00       		.space	1
 1409              		.type	green_led, %object
 1410              		.size	green_led, 3
 1411              	green_led:
 1412 004c 00       		.byte	0
 1413 004d FF       		.byte	-1
 1414 004e 00       		.byte	0
 1415 004f 00       		.space	1
 1416              		.type	blue_led, %object
 1417              		.size	blue_led, 3
 1418              	blue_led:
 1419 0050 00       		.byte	0
 1420 0051 00       		.byte	0
 1421 0052 FF       		.byte	-1
 1422 0053 00       		.space	1
 1423              		.type	yellow_led, %object
ARM GAS  C:\Users\ADMIN\AppData\Local\Temp\ccef7Aml.s 			page 33


 1424              		.size	yellow_led, 3
 1425              	yellow_led:
 1426 0054 FF       		.byte	-1
 1427 0055 82       		.byte	-126
 1428 0056 03       		.byte	3
 1429 0057 00       		.space	1
 1430              		.type	orange_led, %object
 1431              		.size	orange_led, 3
 1432              	orange_led:
 1433 0058 FF       		.byte	-1
 1434 0059 7E       		.byte	126
 1435 005a 00       		.byte	0
 1436 005b 00       		.space	1
 1437              		.type	brown_led, %object
 1438              		.size	brown_led, 3
 1439              	brown_led:
 1440 005c 75       		.byte	117
 1441 005d 4C       		.byte	76
 1442 005e 00       		.byte	0
 1443 005f 00       		.space	1
 1444              		.type	brown_struct, %object
 1445              		.size	brown_struct, 3
 1446              	brown_struct:
 1447 0060 61       		.byte	97
 1448 0061 43       		.byte	67
 1449 0062 49       		.byte	73
 1450 0063 00       		.space	1
 1451              		.type	orange_struct, %object
 1452              		.size	orange_struct, 3
 1453              	orange_struct:
 1454 0064 7B       		.byte	123
 1455 0065 3D       		.byte	61
 1456 0066 37       		.byte	55
 1457 0067 00       		.space	1
 1458              		.type	yellow_struct, %object
 1459              		.size	yellow_struct, 3
 1460              	yellow_struct:
 1461 0068 6F       		.byte	111
 1462 0069 4E       		.byte	78
 1463 006a 32       		.byte	50
 1464 006b 00       		.space	1
 1465              		.type	blue_struct, %object
 1466              		.size	blue_struct, 3
 1467              	blue_struct:
 1468 006c 33       		.byte	51
 1469 006d 5B       		.byte	91
 1470 006e 66       		.byte	102
 1471 006f 00       		.space	1
 1472              		.type	green_struct, %object
 1473              		.size	green_struct, 3
 1474              	green_struct:
 1475 0070 50       		.byte	80
 1476 0071 59       		.byte	89
 1477 0072 44       		.byte	68
 1478 0073 00       		.space	1
 1479              		.type	red_struct, %object
 1480              		.size	red_struct, 3
ARM GAS  C:\Users\ADMIN\AppData\Local\Temp\ccef7Aml.s 			page 34


 1481              	red_struct:
 1482 0074 6C       		.byte	108
 1483 0075 49       		.byte	73
 1484 0076 3D       		.byte	61
 1485              		.section	.rodata.str1.4,"aMS",%progbits,1
 1486              		.align	2
 1487              	.LC1:
 1488 0000 4552524F 		.ascii	"ERROR_WRITE8\000"
 1488      525F5752 
 1488      49544538 
 1488      00
 1489 000d 000000   		.space	3
 1490              	.LC4:
 1491 0010 4552524F 		.ascii	"ERROR_READ8\000"
 1491      525F5245 
 1491      41443800 
 1492              	.LC7:
 1493 001c 4552524F 		.ascii	"ERROR_READ16\000"
 1493      525F5245 
 1493      41443136 
 1493      00
 1494 0029 000000   		.space	3
 1495              	.LC12:
 1496 002c 50524F42 		.ascii	"PROBLEM_READ_ID\000"
 1496      4C454D5F 
 1496      52454144 
 1496      5F494400 
 1497              	.LC14:
 1498 003c 257500   		.ascii	"%u\000"
 1499 003f 00       		.space	1
 1500              	.LC19:
 1501 0040 72202564 		.ascii	"r %d | g %d | b %d\012\000"
 1501      207C2067 
 1501      20256420 
 1501      7C206220 
 1501      25640A00 
 1502              	.LC24:
 1503 0054 52454400 		.ascii	"RED\000"
 1504              	.LC26:
 1505 0058 47524545 		.ascii	"GREEN\000"
 1505      4E00
 1506 005e 0000     		.space	2
 1507              	.LC28:
 1508 0060 424C5545 		.ascii	"BLUE\000"
 1508      00
 1509 0065 000000   		.space	3
 1510              	.LC30:
 1511 0068 4F52414E 		.ascii	"ORANGE\000"
 1511      474500
 1512 006f 00       		.space	1
 1513              	.LC32:
 1514 0070 42524F57 		.ascii	"BROWN\000"
 1514      4E00
 1515 0076 0000     		.space	2
 1516              	.LC34:
 1517 0078 59454C4C 		.ascii	"YELLOW\000"
 1517      4F5700
ARM GAS  C:\Users\ADMIN\AppData\Local\Temp\ccef7Aml.s 			page 35


 1518 007f 00       		.space	1
 1519              	.LC36:
 1520 0080 4E4F4E45 		.ascii	"NONE\000"
 1520      00
 1521 0085 000000   		.space	3
 1522              	.LC42:
 1523 0088 70726570 		.ascii	"preparation %d\000"
 1523      61726174 
 1523      696F6E20 
 1523      256400
 1524              		.bss
 1525              		.align	2
 1526              		.set	.LANCHOR0,. + 0
 1527              		.type	_tcs34725Initialised, %object
 1528              		.size	_tcs34725Initialised, 1
 1529              	_tcs34725Initialised:
 1530 0000 00       		.space	1
 1531              		.type	state, %object
 1532              		.size	state, 1
 1533              	state:
 1534 0001 00       		.space	1
 1535 0002 0000     		.space	2
 1536              		.type	red_struct_max, %object
 1537              		.size	red_struct_max, 12
 1538              	red_struct_max:
 1539 0004 00000000 		.space	12
 1539      00000000 
 1539      00000000 
 1540              		.type	green_struct_max, %object
 1541              		.size	green_struct_max, 12
 1542              	green_struct_max:
 1543 0010 00000000 		.space	12
 1543      00000000 
 1543      00000000 
 1544              		.type	blue_struct_max, %object
 1545              		.size	blue_struct_max, 12
 1546              	blue_struct_max:
 1547 001c 00000000 		.space	12
 1547      00000000 
 1547      00000000 
 1548              		.type	orange_struct_max, %object
 1549              		.size	orange_struct_max, 12
 1550              	orange_struct_max:
 1551 0028 00000000 		.space	12
 1551      00000000 
 1551      00000000 
 1552              		.type	brown_struct_max, %object
 1553              		.size	brown_struct_max, 12
 1554              	brown_struct_max:
 1555 0034 00000000 		.space	12
 1555      00000000 
 1555      00000000 
 1556              		.type	yellow_struct_max, %object
 1557              		.size	yellow_struct_max, 12
 1558              	yellow_struct_max:
 1559 0040 00000000 		.space	12
 1559      00000000 
ARM GAS  C:\Users\ADMIN\AppData\Local\Temp\ccef7Aml.s 			page 36


 1559      00000000 
 1560              		.type	black_led, %object
 1561              		.size	black_led, 3
 1562              	black_led:
 1563 004c 000000   		.space	3
 1564              		.text
 1565              	.Letext0:
 1566              		.file 2 "c:\\program files (x86)\\cypress\\psoc creator\\4.4\\psoc creator\\import\\gnu\\arm\\5.4.
 1567              		.file 3 "c:\\program files (x86)\\cypress\\psoc creator\\4.4\\psoc creator\\import\\gnu\\arm\\5.4.
 1568              		.file 4 "Generated_Source\\PSoC4/cytypes.h"
 1569              		.file 5 "tcs34725.h"
 1570              		.file 6 "learn_color.h"
 1571              		.file 7 "Generated_Source\\PSoC4/I2C_I2C.h"
 1572              		.file 8 "utils.h"
 1573              		.file 9 "Generated_Source\\PSoC4/CyLib.h"
 1574              		.file 10 "c:\\program files (x86)\\cypress\\psoc creator\\4.4\\psoc creator\\import\\gnu\\arm\\5.4
 1575              		.file 11 "Generated_Source\\PSoC4/PWM_RED.h"
 1576              		.file 12 "Generated_Source\\PSoC4/PWM_GREEN.h"
 1577              		.file 13 "Generated_Source\\PSoC4/PWM_BLUE.h"